(lp0
(lp1
(imodeler.Context
Context
p2
(dp3
S'player_action'
p4
S'r'
p5
sS'player_nb'
p6
I1
sS'bet_round'
p7
I1
sS'pot_odds'
p8
F1.0
sS'player_cards'
p9
(lp10
(lp11
I11
aS'S'
p12
aa(lp13
I14
ag12
aasS'nb_players'
p14
I6
sS'nb_raises'
p15
I0
sS'shared_cards'
p16
(lp17
sbaF0.055
aa(lp18
(imodeler.Context
Context
p19
(dp20
g4
S'c'
p21
sg6
I3
sg7
I1
sg8
F0.5
sg9
(lp22
(lp23
I13
ag12
aa(lp24
I8
aS'H'
p25
aasg14
I6
sg15
I1
sg16
(lp26
sbaF0.051999999999999998
aa(lp27
(imodeler.Context
Context
p28
(dp29
g4
g21
sg6
I4
sg7
I1
sg8
F0.33300000000000002
sg9
(lp30
(lp31
I9
ag12
aa(lp32
I13
aS'C'
p33
aasg14
I6
sg15
I1
sg16
(lp34
sbaF0.014
aa(lp35
(imodeler.Context
Context
p36
(dp37
g4
g21
sg6
I0
sg7
I1
sg8
F0.10000000000000001
sg9
(lp38
(lp39
I12
ag33
aa(lp40
I2
ag12
aasg14
I6
sg15
I1
sg16
(lp41
sbaF0.023
aa(lp42
(imodeler.Context
Context
p43
(dp44
g4
g21
sg6
I1
sg7
I2
sg8
F0.0
sg9
g10
sg14
I6
sg15
I0
sg16
(lp45
(lp46
I5
aS'D'
p47
aa(lp48
I3
ag12
aa(lp49
I8
ag33
aasbaF0.017999999999999999
aa(lp50
(imodeler.Context
Context
p51
(dp52
g4
g5
sg6
I3
sg7
I2
sg8
F0.0
sg9
g22
sg14
I6
sg15
I0
sg16
(lp53
g46
ag48
ag49
asbaF0.218
aa(lp54
(imodeler.Context
Context
p55
(dp56
g4
g21
sg6
I4
sg7
I2
sg8
F0.069000000000000006
sg9
g30
sg14
I6
sg15
I1
sg16
(lp57
g46
ag48
ag49
asbaF0.019
aa(lp58
(imodeler.Context
Context
p59
(dp60
g4
g21
sg6
I0
sg7
I2
sg8
F0.060999999999999999
sg9
g38
sg14
I6
sg15
I1
sg16
(lp61
g46
ag48
ag49
asbaF0.012
aa(lp62
(imodeler.Context
Context
p63
(dp64
g4
g21
sg6
I1
sg7
I2
sg8
F0.057000000000000002
sg9
g10
sg14
I6
sg15
I1
sg16
(lp65
g46
ag48
ag49
asbaF0.024
aa(lp66
(imodeler.Context
Context
p67
(dp68
g4
g5
sg6
I3
sg7
I3
sg8
F0.0
sg9
g22
sg14
I6
sg15
I0
sg16
(lp69
g46
ag48
ag49
a(lp70
I6
ag25
aasbaF0.056000000000000001
aa(lp71
(imodeler.Context
Context
p72
(dp73
g4
g21
sg6
I4
sg7
I3
sg8
F0.050999999999999997
sg9
g30
sg14
I6
sg15
I1
sg16
(lp74
g46
ag48
ag49
ag70
asbaF0.036999999999999998
aa(lp75
(imodeler.Context
Context
p76
(dp77
g4
g21
sg6
I0
sg7
I3
sg8
F0.049000000000000002
sg9
g38
sg14
I6
sg15
I1
sg16
(lp78
g46
ag48
ag49
ag70
asbaF0.036999999999999998
aa(lp79
(imodeler.Context
Context
p80
(dp81
g4
g21
sg6
I1
sg7
I3
sg8
F0.047
sg9
g10
sg14
I6
sg15
I1
sg16
(lp82
g46
ag48
ag49
ag70
asbaF0.021999999999999999
aa(lp83
(imodeler.Context
Context
p84
(dp85
g4
g21
sg6
I3
sg7
I4
sg8
F0.0
sg9
g22
sg14
I6
sg15
I0
sg16
(lp86
g46
ag48
ag49
ag70
a(lp87
I2
ag47
aasbaF0.066000000000000003
aa(lp88
(imodeler.Context
Context
p89
(dp90
g4
g21
sg6
I4
sg7
I4
sg8
F0.0
sg9
g30
sg14
I6
sg15
I0
sg16
(lp91
g46
ag48
ag49
ag70
ag87
asbaF0.041000000000000002
aa(lp92
(imodeler.Context
Context
p93
(dp94
g4
g21
sg6
I0
sg7
I4
sg8
F0.0
sg9
g38
sg14
I6
sg15
I0
sg16
(lp95
g46
ag48
ag49
ag70
ag87
asbaF0.042000000000000003
aa(lp96
(imodeler.Context
Context
p97
(dp98
g4
g21
sg6
I1
sg7
I4
sg8
F0.0
sg9
g10
sg14
I6
sg15
I0
sg16
(lp99
g46
ag48
ag49
ag70
ag87
asbaF0.050000000000000003
aa(lp100
(imodeler.Context
Context
p101
(dp102
g4
g5
sg6
I4
sg7
I1
sg8
F0.5
sg9
(lp103
(lp104
I14
ag33
aa(lp105
I9
ag12
aasg14
I6
sg15
I0
sg16
(lp106
sbaF0.108
aa(lp107
(imodeler.Context
Context
p108
(dp109
g4
g21
sg6
I0
sg7
I1
sg8
F0.27800000000000002
sg9
(lp110
(lp111
I13
ag25
aa(lp112
I7
ag33
aasg14
I6
sg15
I1
sg16
(lp113
sbaF0.019
aa(lp114
(imodeler.Context
Context
p115
(dp116
g4
g21
sg6
I4
sg7
I2
sg8
F0.0
sg9
g103
sg14
I6
sg15
I0
sg16
(lp117
(lp118
I10
ag12
aa(lp119
I5
ag25
aa(lp120
I8
ag47
aasbaF0.031
aa(lp121
(imodeler.Context
Context
p122
(dp123
g4
g21
sg6
I0
sg7
I2
sg8
F0.0
sg9
g110
sg14
I6
sg15
I0
sg16
(lp124
g118
ag119
ag120
asbaF0.062
aa(lp125
(imodeler.Context
Context
p126
(dp127
g4
g21
sg6
I4
sg7
I3
sg8
F0.0
sg9
g103
sg14
I6
sg15
I0
sg16
(lp128
g118
ag119
ag120
a(lp129
I11
ag25
aasbaF0.014999999999999999
aa(lp130
(imodeler.Context
Context
p131
(dp132
g4
g21
sg6
I0
sg7
I3
sg8
F0.0
sg9
g110
sg14
I6
sg15
I0
sg16
(lp133
g118
ag119
ag120
ag129
asbaF0.050000000000000003
aa(lp134
(imodeler.Context
Context
p135
(dp136
g4
g5
sg6
I4
sg7
I4
sg8
F0.0
sg9
g103
sg14
I6
sg15
I0
sg16
(lp137
g118
ag119
ag120
ag129
a(lp138
I7
ag12
aasbaF0.044999999999999998
aa(lp139
(imodeler.Context
Context
p140
(dp141
g4
g21
sg6
I0
sg7
I4
sg8
F0.069000000000000006
sg9
g110
sg14
I6
sg15
I1
sg16
(lp142
g118
ag119
ag120
ag129
ag138
asbaF0.025000000000000001
aa(lp143
(imodeler.Context
Context
p144
(dp145
g4
g21
sg6
I4
sg7
I1
sg8
F0.25
sg9
(lp146
(lp147
I10
ag47
aa(lp148
I5
ag33
aasg14
I6
sg15
I1
sg16
(lp149
sbaF0.032000000000000001
aa(lp150
(imodeler.Context
Context
p151
(dp152
g4
g5
sg6
I0
sg7
I2
sg8
F0.0
sg9
(lp153
(lp154
I13
ag25
aa(lp155
I8
ag25
aasg14
I6
sg15
I0
sg16
(lp156
(lp157
I9
ag33
aa(lp158
I7
ag47
aa(lp159
I8
ag47
aasbaF0.041000000000000002
aa(lp160
(imodeler.Context
Context
p161
(dp162
g4
g21
sg6
I1
sg7
I3
sg8
F0.0
sg9
(lp163
(lp164
I14
ag12
aa(lp165
I13
ag47
aasg14
I6
sg15
I0
sg16
(lp166
g157
ag158
ag159
a(lp167
I11
ag25
aasbaF0.012999999999999999
aa(lp168
(imodeler.Context
Context
p169
(dp170
g4
g5
sg6
I4
sg7
I3
sg8
F0.0
sg9
g146
sg14
I6
sg15
I0
sg16
(lp171
g157
ag158
ag159
ag167
asbaF0.040000000000000001
aa(lp172
(imodeler.Context
Context
p173
(dp174
g4
g21
sg6
I1
sg7
I4
sg8
F0.041000000000000002
sg9
g163
sg14
I6
sg15
I1
sg16
(lp175
g157
ag158
ag159
ag167
a(lp176
I12
ag33
aasbaF0.021000000000000001
aa(lp177
(imodeler.Context
Context
p178
(dp179
g4
g21
sg6
I0
sg7
I1
sg8
F1.0
sg9
(lp180
(lp181
I5
ag25
aa(lp182
I12
ag47
aasg14
I6
sg15
I0
sg16
(lp183
sbaF0.02
aa(lp184
(imodeler.Context
Context
p185
(dp186
g4
g21
sg6
I1
sg7
I1
sg8
F0.5
sg9
(lp187
(lp188
I8
ag25
aa(lp189
I9
ag33
aasg14
I6
sg15
I0
sg16
(lp190
sbaF0.01
aa(lp191
(imodeler.Context
Context
p192
(dp193
g4
g21
sg6
I3
sg7
I1
sg8
F0.33300000000000002
sg9
(lp194
(lp195
I14
ag47
aa(lp196
I13
ag47
aasg14
I6
sg15
I0
sg16
(lp197
sbaF0.052999999999999999
aa(lp198
(imodeler.Context
Context
p199
(dp200
g4
g21
sg6
I5
sg7
I1
sg8
F0.0
sg9
(lp201
(lp202
I3
ag47
aa(lp203
I14
ag25
aasg14
I6
sg15
I0
sg16
(lp204
sbaF0.058000000000000003
aa(lp205
(imodeler.Context
Context
p206
(dp207
g4
g5
sg6
I5
sg7
I2
sg8
F0.111
sg9
g201
sg14
I6
sg15
I1
sg16
(lp208
(lp209
I14
ag12
aa(lp210
I10
ag12
aa(lp211
I14
ag33
aasbaF0.056000000000000001
aa(lp212
(imodeler.Context
Context
p213
(dp214
g4
g21
sg6
I0
sg7
I2
sg8
F0.16700000000000001
sg9
g180
sg14
I6
sg15
I2
sg16
(lp215
g209
ag210
ag211
asbaF0.025999999999999999
aa(lp216
(imodeler.Context
Context
p217
(dp218
g4
g21
sg6
I1
sg7
I2
sg8
F0.14299999999999999
sg9
g187
sg14
I6
sg15
I2
sg16
(lp219
g209
ag210
ag211
asbaF0.039
aa(lp220
(imodeler.Context
Context
p221
(dp222
g4
g5
sg6
I3
sg7
I2
sg8
F0.067000000000000004
sg9
g194
sg14
I6
sg15
I2
sg16
(lp223
g209
ag210
ag211
asbaF0.060999999999999999
aa(lp224
(imodeler.Context
Context
p225
(dp226
g4
g5
sg6
I5
sg7
I2
sg8
F0.058999999999999997
sg9
g201
sg14
I6
sg15
I3
sg16
(lp227
g209
ag210
ag211
asbaF0.031
aa(lp228
(imodeler.Context
Context
p229
(dp230
g4
g21
sg6
I0
sg7
I2
sg8
F0.10000000000000001
sg9
g180
sg14
I6
sg15
I4
sg16
(lp231
g209
ag210
ag211
asbaF0.028000000000000001
aa(lp232
(imodeler.Context
Context
p233
(dp234
g4
g21
sg6
I1
sg7
I2
sg8
F0.090999999999999998
sg9
g187
sg14
I6
sg15
I4
sg16
(lp235
g209
ag210
ag211
asbaF0.042000000000000003
aa(lp236
(imodeler.Context
Context
p237
(dp238
g4
g5
sg6
I3
sg7
I2
sg8
F0.042999999999999997
sg9
g194
sg14
I6
sg15
I4
sg16
(lp239
g209
ag210
ag211
asbaF0.215
aa(lp240
(imodeler.Context
Context
p241
(dp242
g4
g5
sg6
I5
sg7
I2
sg8
F0.040000000000000001
sg9
g201
sg14
I6
sg15
I5
sg16
(lp243
g209
ag210
ag211
asbaF0.040000000000000001
aa(lp244
(imodeler.Context
Context
p245
(dp246
g4
g21
sg6
I0
sg7
I2
sg8
F0.070999999999999994
sg9
g180
sg14
I6
sg15
I6
sg16
(lp247
g209
ag210
ag211
asbaF0.027
aa(lp248
(imodeler.Context
Context
p249
(dp250
g4
g21
sg6
I1
sg7
I2
sg8
F0.067000000000000004
sg9
g187
sg14
I6
sg15
I6
sg16
(lp251
g209
ag210
ag211
asbaF0.043999999999999997
aa(lp252
(imodeler.Context
Context
p253
(dp254
g4
g5
sg6
I3
sg7
I2
sg8
F0.032000000000000001
sg9
g194
sg14
I6
sg15
I6
sg16
(lp255
g209
ag210
ag211
asbaF0.13100000000000001
aa(lp256
(imodeler.Context
Context
p257
(dp258
g4
g5
sg6
I5
sg7
I2
sg8
F0.029999999999999999
sg9
g201
sg14
I6
sg15
I7
sg16
(lp259
g209
ag210
ag211
asbaF0.031
aa(lp260
(imodeler.Context
Context
p261
(dp262
g4
g21
sg6
I0
sg7
I2
sg8
F0.056000000000000001
sg9
g180
sg14
I6
sg15
I8
sg16
(lp263
g209
ag210
ag211
asbaF0.025999999999999999
aa(lp264
(imodeler.Context
Context
p265
(dp266
g4
g21
sg6
I1
sg7
I2
sg8
F0.052999999999999999
sg9
g187
sg14
I6
sg15
I8
sg16
(lp267
g209
ag210
ag211
asbaF0.16500000000000001
aa(lp268
(imodeler.Context
Context
p269
(dp270
g4
g21
sg6
I3
sg7
I2
sg8
F0.025999999999999999
sg9
g194
sg14
I6
sg15
I8
sg16
(lp271
g209
ag210
ag211
asbaF0.068000000000000005
aa(lp272
(imodeler.Context
Context
p273
(dp274
g4
g5
sg6
I5
sg7
I3
sg8
F0.0
sg9
g201
sg14
I6
sg15
I0
sg16
(lp275
g209
ag210
ag211
a(lp276
I8
ag33
aasbaF0.039
aa(lp277
(imodeler.Context
Context
p278
(dp279
g4
g5
sg6
I1
sg7
I3
sg8
F0.024
sg9
g187
sg14
I6
sg15
I1
sg16
(lp280
g209
ag210
ag211
ag276
asbaF0.26700000000000002
aa(lp281
(imodeler.Context
Context
p282
(dp283
g4
g5
sg6
I3
sg7
I3
sg8
F0.043999999999999997
sg9
g194
sg14
I6
sg15
I2
sg16
(lp284
g209
ag210
ag211
ag276
asbaF0.078
aa(lp285
(imodeler.Context
Context
p286
(dp287
g4
g5
sg6
I5
sg7
I3
sg8
F0.042000000000000003
sg9
g201
sg14
I6
sg15
I3
sg16
(lp288
g209
ag210
ag211
ag276
asbaF0.065000000000000002
aa(lp289
(imodeler.Context
Context
p290
(dp291
g4
g21
sg6
I0
sg7
I3
sg8
F0.058000000000000003
sg9
g180
sg14
I6
sg15
I4
sg16
(lp292
g209
ag210
ag211
ag276
asbaF0.029999999999999999
aa(lp293
(imodeler.Context
Context
p294
(dp295
g4
g5
sg6
I1
sg7
I3
sg8
F0.036999999999999998
sg9
g187
sg14
I6
sg15
I4
sg16
(lp296
g209
ag210
ag211
ag276
asbaF0.106
aa(lp297
(imodeler.Context
Context
p298
(dp299
g4
g5
sg6
I3
sg7
I3
sg8
F0.035000000000000003
sg9
g194
sg14
I6
sg15
I5
sg16
(lp300
g209
ag210
ag211
ag276
asbaF0.218
aa(lp301
(imodeler.Context
Context
p302
(dp303
g4
g5
sg6
I5
sg7
I3
sg8
F0.033000000000000002
sg9
g201
sg14
I6
sg15
I6
sg16
(lp304
g209
ag210
ag211
ag276
asbaF0.071999999999999995
aa(lp305
(imodeler.Context
Context
p306
(dp307
g4
g21
sg6
I0
sg7
I3
sg8
F0.047
sg9
g180
sg14
I6
sg15
I7
sg16
(lp308
g209
ag210
ag211
ag276
asbaF0.024
aa(lp309
(imodeler.Context
Context
p310
(dp311
g4
g5
sg6
I1
sg7
I3
sg8
F0.029999999999999999
sg9
g187
sg14
I6
sg15
I7
sg16
(lp312
g209
ag210
ag211
ag276
asbaF0.26600000000000001
aa(lp313
(imodeler.Context
Context
p314
(dp315
g4
g5
sg6
I3
sg7
I3
sg8
F0.029000000000000001
sg9
g194
sg14
I6
sg15
I8
sg16
(lp316
g209
ag210
ag211
ag276
asbaF0.058999999999999997
aa(lp317
(imodeler.Context
Context
p318
(dp319
g4
g5
sg6
I5
sg7
I3
sg8
F0.028000000000000001
sg9
g201
sg14
I6
sg15
I9
sg16
(lp320
g209
ag210
ag211
ag276
asbaF0.064000000000000001
aa(lp321
(imodeler.Context
Context
p322
(dp323
g4
g21
sg6
I0
sg7
I3
sg8
F0.039
sg9
g180
sg14
I6
sg15
I10
sg16
(lp324
g209
ag210
ag211
ag276
asbaF0.050000000000000003
aa(lp325
(imodeler.Context
Context
p326
(dp327
g4
g5
sg6
I1
sg7
I3
sg8
F0.025999999999999999
sg9
g187
sg14
I6
sg15
I10
sg16
(lp328
g209
ag210
ag211
ag276
asbaF0.060999999999999999
aa(lp329
(imodeler.Context
Context
p330
(dp331
g4
g5
sg6
I3
sg7
I3
sg8
F0.025000000000000001
sg9
g194
sg14
I6
sg15
I11
sg16
(lp332
g209
ag210
ag211
ag276
asbaF0.053999999999999999
aa(lp333
(imodeler.Context
Context
p334
(dp335
g4
g21
sg6
I5
sg7
I3
sg8
F0.024
sg9
g201
sg14
I6
sg15
I12
sg16
(lp336
g209
ag210
ag211
ag276
asbaF0.062
aa(lp337
(imodeler.Context
Context
p338
(dp339
g4
g21
sg6
I0
sg7
I3
sg8
F0.023
sg9
g180
sg14
I6
sg15
I12
sg16
(lp340
g209
ag210
ag211
ag276
asbaF0.099000000000000005
aa(lp341
(imodeler.Context
Context
p342
(dp343
g4
g21
sg6
I1
sg7
I3
sg8
F0.010999999999999999
sg9
g187
sg14
I6
sg15
I12
sg16
(lp344
g209
ag210
ag211
ag276
asbaF0.032000000000000001
aa(lp345
(imodeler.Context
Context
p346
(dp347
g4
g5
sg6
I3
sg7
I4
sg8
F0.0
sg9
g194
sg14
I6
sg15
I0
sg16
(lp348
g209
ag210
ag211
ag276
a(lp349
I3
ag25
aasbaF0.20399999999999999
aa(lp350
(imodeler.Context
Context
p351
(dp352
g4
g5
sg6
I5
sg7
I4
sg8
F0.010999999999999999
sg9
g201
sg14
I6
sg15
I1
sg16
(lp353
g209
ag210
ag211
ag276
ag349
asbaF0.037999999999999999
aa(lp354
(imodeler.Context
Context
p355
(dp356
g4
g21
sg6
I0
sg7
I4
sg8
F0.021999999999999999
sg9
g180
sg14
I6
sg15
I2
sg16
(lp357
g209
ag210
ag211
ag276
ag349
asbaF0.023
aa(lp358
(imodeler.Context
Context
p359
(dp360
g4
g5
sg6
I1
sg7
I4
sg8
F0.021000000000000001
sg9
g187
sg14
I6
sg15
I2
sg16
(lp361
g209
ag210
ag211
ag276
ag349
asbaF0.222
aa(lp362
(imodeler.Context
Context
p363
(dp364
g4
g5
sg6
I3
sg7
I4
sg8
F0.021000000000000001
sg9
g194
sg14
I6
sg15
I3
sg16
(lp365
g209
ag210
ag211
ag276
ag349
asbaF0.037999999999999999
aa(lp366
(imodeler.Context
Context
p367
(dp368
g4
g5
sg6
I5
sg7
I4
sg8
F0.02
sg9
g201
sg14
I6
sg15
I4
sg16
(lp369
g209
ag210
ag211
ag276
ag349
asbaF0.080000000000000002
aa(lp370
(imodeler.Context
Context
p371
(dp372
g4
g21
sg6
I0
sg7
I4
sg8
F0.029000000000000001
sg9
g180
sg14
I6
sg15
I5
sg16
(lp373
g209
ag210
ag211
ag276
ag349
asbaF0.029000000000000001
aa(lp374
(imodeler.Context
Context
p375
(dp376
g4
g5
sg6
I1
sg7
I4
sg8
F0.019
sg9
g187
sg14
I6
sg15
I5
sg16
(lp377
g209
ag210
ag211
ag276
ag349
asbaF0.049000000000000002
aa(lp378
(imodeler.Context
Context
p379
(dp380
g4
g5
sg6
I3
sg7
I4
sg8
F0.017999999999999999
sg9
g194
sg14
I6
sg15
I6
sg16
(lp381
g209
ag210
ag211
ag276
ag349
asbaF0.22900000000000001
aa(lp382
(imodeler.Context
Context
p383
(dp384
g4
g5
sg6
I5
sg7
I4
sg8
F0.017999999999999999
sg9
g201
sg14
I6
sg15
I7
sg16
(lp385
g209
ag210
ag211
ag276
ag349
asbaF0.050999999999999997
aa(lp386
(imodeler.Context
Context
p387
(dp388
g4
g21
sg6
I0
sg7
I4
sg8
F0.025999999999999999
sg9
g180
sg14
I6
sg15
I8
sg16
(lp389
g209
ag210
ag211
ag276
ag349
asbaF0.024
aa(lp390
(imodeler.Context
Context
p391
(dp392
g4
g5
sg6
I1
sg7
I4
sg8
F0.017000000000000001
sg9
g187
sg14
I6
sg15
I8
sg16
(lp393
g209
ag210
ag211
ag276
ag349
asbaF0.053999999999999999
aa(lp394
(imodeler.Context
Context
p395
(dp396
g4
g5
sg6
I3
sg7
I4
sg8
F0.017000000000000001
sg9
g194
sg14
I6
sg15
I9
sg16
(lp397
g209
ag210
ag211
ag276
ag349
asbaF0.19900000000000001
aa(lp398
(imodeler.Context
Context
p399
(dp400
g4
g5
sg6
I5
sg7
I4
sg8
F0.016
sg9
g201
sg14
I6
sg15
I10
sg16
(lp401
g209
ag210
ag211
ag276
ag349
asbaF0.045999999999999999
aa(lp402
(imodeler.Context
Context
p403
(dp404
g4
g21
sg6
I0
sg7
I4
sg8
F0.023
sg9
g180
sg14
I6
sg15
I11
sg16
(lp405
g209
ag210
ag211
ag276
ag349
asbaF0.040000000000000001
aa(lp406
(imodeler.Context
Context
p407
(dp408
g4
g5
sg6
I1
sg7
I4
sg8
F0.014999999999999999
sg9
g187
sg14
I6
sg15
I11
sg16
(lp409
g209
ag210
ag211
ag276
ag349
asbaF0.047
aa(lp410
(imodeler.Context
Context
p411
(dp412
g4
g21
sg6
I3
sg7
I4
sg8
F0.014999999999999999
sg9
g194
sg14
I6
sg15
I12
sg16
(lp413
g209
ag210
ag211
ag276
ag349
asbaF0.113
aa(lp414
(imodeler.Context
Context
p415
(dp416
g4
g21
sg6
I5
sg7
I4
sg8
F0.0070000000000000001
sg9
g201
sg14
I6
sg15
I12
sg16
(lp417
g209
ag210
ag211
ag276
ag349
asbaF0.035000000000000003
aa(lp418
(imodeler.Context
Context
p419
(dp420
g4
g21
sg6
I0
sg7
I4
sg8
F0.0070000000000000001
sg9
g180
sg14
I6
sg15
I12
sg16
(lp421
g209
ag210
ag211
ag276
ag349
asbaF0.040000000000000001
aa(lp422
(imodeler.Context
Context
p423
(dp424
g4
g21
sg6
I1
sg7
I1
sg8
F1.0
sg9
(lp425
(lp426
I12
ag47
aa(lp427
I11
ag12
aasg14
I6
sg15
I0
sg16
(lp428
sbaF0.021000000000000001
aa(lp429
(imodeler.Context
Context
p430
(dp431
g4
g5
sg6
I0
sg7
I1
sg8
F0.0
sg9
(lp432
(lp433
I11
ag33
aa(lp434
I14
ag33
aasg14
I6
sg15
I0
sg16
(lp435
sbaF0.097000000000000003
aa(lp436
(imodeler.Context
Context
p437
(dp438
g4
g21
sg6
I1
sg7
I1
sg8
F0.25
sg9
g425
sg14
I6
sg15
I1
sg16
(lp439
sbaF0.010999999999999999
aa(lp440
(imodeler.Context
Context
p441
(dp442
g4
g21
sg6
I4
sg7
I1
sg8
F0.5
sg9
(lp443
(lp444
I9
ag25
aa(lp445
I12
ag33
aasg14
I6
sg15
I0
sg16
(lp446
sbaF0.014
aa(lp447
(imodeler.Context
Context
p448
(dp449
g4
g5
sg6
I0
sg7
I1
sg8
F0.33300000000000002
sg9
(lp450
(lp451
I14
ag12
aa(lp452
I9
ag12
aasg14
I6
sg15
I0
sg16
(lp453
sbaF0.068000000000000005
aa(lp454
(imodeler.Context
Context
p455
(dp456
g4
g21
sg6
I4
sg7
I1
sg8
F0.11799999999999999
sg9
g443
sg14
I6
sg15
I1
sg16
(lp457
sbaF0.032000000000000001
aa(lp458
(imodeler.Context
Context
p459
(dp460
g4
g21
sg6
I4
sg7
I1
sg8
F1.0
sg9
(lp461
(lp462
I10
ag12
aa(lp463
I12
ag25
aasg14
I6
sg15
I0
sg16
(lp464
sbaF0.028000000000000001
aa(lp465
(imodeler.Context
Context
p466
(dp467
g4
g5
sg6
I4
sg7
I2
sg8
F0.0
sg9
g461
sg14
I6
sg15
I0
sg16
(lp468
(lp469
I3
ag33
aa(lp470
I12
ag33
aa(lp471
I4
ag25
aasbaF0.094
aa(lp472
(imodeler.Context
Context
p473
(dp474
g4
g21
sg6
I1
sg7
I2
sg8
F0.13300000000000001
sg9
(lp475
(lp476
I11
ag33
aa(lp477
I6
ag33
aasg14
I6
sg15
I1
sg16
(lp478
g469
ag470
ag471
asbaF0.017000000000000001
aa(lp479
(imodeler.Context
Context
p480
(dp481
g4
g21
sg6
I1
sg7
I3
sg8
F0.105
sg9
g475
sg14
I6
sg15
I1
sg16
(lp482
g469
ag470
ag471
a(lp483
I2
ag12
aasbaF0.017000000000000001
aa(lp484
(imodeler.Context
Context
p485
(dp486
g4
g5
sg6
I4
sg7
I2
sg8
F0.073999999999999996
sg9
(lp487
(lp488
I13
ag25
aa(lp489
I13
ag47
aasg14
I6
sg15
I2
sg16
(lp490
(lp491
I12
ag33
aa(lp492
I9
ag25
aa(lp493
I6
ag12
aasbaF0.040000000000000001
aa(lp494
(imodeler.Context
Context
p495
(dp496
g4
g21
sg6
I1
sg7
I2
sg8
F0.121
sg9
(lp497
(lp498
I14
ag47
aa(lp499
I5
ag12
aasg14
I6
sg15
I3
sg16
(lp500
g491
ag492
ag493
asbaF0.014
aa(lp501
(imodeler.Context
Context
p502
(dp503
g4
g5
sg6
I4
sg7
I2
sg8
F0.050999999999999997
sg9
g487
sg14
I6
sg15
I4
sg16
(lp504
g491
ag492
ag493
asbaF0.128
aa(lp505
(imodeler.Context
Context
p506
(dp507
g4
g21
sg6
I1
sg7
I2
sg8
F0.088999999999999996
sg9
g497
sg14
I6
sg15
I5
sg16
(lp508
g491
ag492
ag493
asbaF0.01
aa(lp509
(imodeler.Context
Context
p510
(dp511
g4
g5
sg6
I4
sg7
I2
sg8
F0.039
sg9
g487
sg14
I6
sg15
I6
sg16
(lp512
g491
ag492
ag493
asbaF0.058000000000000003
aa(lp513
(imodeler.Context
Context
p514
(dp515
g4
g21
sg6
I1
sg7
I2
sg8
F0.070000000000000007
sg9
g497
sg14
I6
sg15
I7
sg16
(lp516
g491
ag492
ag493
asbaF0.014
aa(lp517
(imodeler.Context
Context
p518
(dp519
g4
g21
sg6
I4
sg7
I2
sg8
F0.032000000000000001
sg9
g487
sg14
I6
sg15
I8
sg16
(lp520
g491
ag492
ag493
asbaF0.014
aa(lp521
(imodeler.Context
Context
p522
(dp523
g4
g5
sg6
I4
sg7
I3
sg8
F0.029000000000000001
sg9
g487
sg14
I6
sg15
I1
sg16
(lp524
g491
ag492
ag493
a(lp525
I10
ag33
aasbaF0.079000000000000001
aa(lp526
(imodeler.Context
Context
p527
(dp528
g4
g21
sg6
I1
sg7
I3
sg8
F0.052999999999999999
sg9
g497
sg14
I6
sg15
I2
sg16
(lp529
g491
ag492
ag493
ag525
asbaF0.027
aa(lp530
(imodeler.Context
Context
p531
(dp532
g4
g5
sg6
I4
sg7
I3
sg8
F0.025000000000000001
sg9
g487
sg14
I6
sg15
I3
sg16
(lp533
g491
ag492
ag493
ag525
asbaF0.122
aa(lp534
(imodeler.Context
Context
p535
(dp536
g4
g21
sg6
I1
sg7
I3
sg8
F0.045999999999999999
sg9
g497
sg14
I6
sg15
I4
sg16
(lp537
g491
ag492
ag493
ag525
asbaF0.043999999999999997
aa(lp538
(imodeler.Context
Context
p539
(dp540
g4
g5
sg6
I4
sg7
I3
sg8
F0.021999999999999999
sg9
g487
sg14
I6
sg15
I5
sg16
(lp541
g491
ag492
ag493
ag525
asbaF0.13300000000000001
aa(lp542
(imodeler.Context
Context
p543
(dp544
g4
g21
sg6
I1
sg7
I3
sg8
F0.040000000000000001
sg9
g497
sg14
I6
sg15
I6
sg16
(lp545
g491
ag492
ag493
ag525
asbaF0.017999999999999999
aa(lp546
(imodeler.Context
Context
p547
(dp548
g4
g5
sg6
I4
sg7
I3
sg8
F0.019
sg9
g487
sg14
I6
sg15
I7
sg16
(lp549
g491
ag492
ag493
ag525
asbaF0.092999999999999999
aa(lp550
(imodeler.Context
Context
p551
(dp552
g4
g21
sg6
I1
sg7
I3
sg8
F0.035999999999999997
sg9
g497
sg14
I6
sg15
I8
sg16
(lp553
g491
ag492
ag493
ag525
asbaF0.042000000000000003
aa(lp554
(imodeler.Context
Context
p555
(dp556
g4
g21
sg6
I0
sg7
I1
sg8
F0.5
sg9
(lp557
(lp558
I11
ag25
aa(lp559
I7
ag33
aasg14
I6
sg15
I0
sg16
(lp560
sbaF0.017000000000000001
aa(lp561
(imodeler.Context
Context
p562
(dp563
g4
g21
sg6
I1
sg7
I1
sg8
F0.33300000000000002
sg9
(lp564
(lp565
I3
ag47
aa(lp566
I14
ag12
aasg14
I6
sg15
I0
sg16
(lp567
sbaF0.019
aa(lp568
(imodeler.Context
Context
p569
(dp570
g4
g5
sg6
I1
sg7
I4
sg8
F0.0
sg9
g564
sg14
I6
sg15
I0
sg16
(lp571
(lp572
I13
ag12
aa(lp573
I5
ag33
aa(lp574
I13
ag33
aa(lp575
I12
ag47
aa(lp576
I12
ag12
aasbaF0.26700000000000002
aa(lp577
(imodeler.Context
Context
p578
(dp579
g4
g21
sg6
I5
sg7
I1
sg8
F1.0
sg9
(lp580
(lp581
I12
ag47
aa(lp582
I6
ag47
aasg14
I6
sg15
I0
sg16
(lp583
sbaF0.035000000000000003
aa(lp584
(imodeler.Context
Context
p585
(dp586
g4
g21
sg6
I2
sg7
I1
sg8
F0.25
sg9
(lp587
(lp588
I14
ag25
aa(lp589
I12
ag12
aasg14
I6
sg15
I0
sg16
(lp590
sbaF0.042000000000000003
aa(lp591
(imodeler.Context
Context
p592
(dp593
g4
g21
sg6
I4
sg7
I1
sg8
F0.0
sg9
(lp594
(lp595
I14
ag47
aa(lp596
I6
ag12
aasg14
I6
sg15
I0
sg16
(lp597
sbaF0.014
aa(lp598
(imodeler.Context
Context
p599
(dp600
g4
g5
sg6
I5
sg7
I2
sg8
F0.0
sg9
g580
sg14
I6
sg15
I0
sg16
(lp601
(lp602
I9
ag25
aa(lp603
I12
ag25
aa(lp604
I2
ag12
aasbaF0.075999999999999998
aa(lp605
(imodeler.Context
Context
p606
(dp607
g4
g5
sg6
I2
sg7
I2
sg8
F0.080000000000000002
sg9
g587
sg14
I6
sg15
I1
sg16
(lp608
g602
ag603
ag604
asbaF0.076999999999999999
aa(lp609
(imodeler.Context
Context
p610
(dp611
g4
g21
sg6
I4
sg7
I2
sg8
F0.129
sg9
g594
sg14
I6
sg15
I2
sg16
(lp612
g602
ag603
ag604
asbaF0.017999999999999999
aa(lp613
(imodeler.Context
Context
p614
(dp615
g4
g5
sg6
I5
sg7
I2
sg8
F0.060999999999999999
sg9
g580
sg14
I6
sg15
I2
sg16
(lp616
g602
ag603
ag604
asbaF0.037999999999999999
aa(lp617
(imodeler.Context
Context
p618
(dp619
g4
g21
sg6
I0
sg7
I2
sg8
F0.10299999999999999
sg9
(lp620
(lp621
I13
ag33
aa(lp622
I7
ag25
aasg14
I6
sg15
I3
sg16
(lp623
g602
ag603
ag604
asbaF0.014
aa(lp624
(imodeler.Context
Context
p625
(dp626
g4
g5
sg6
I2
sg7
I2
sg8
F0.043999999999999997
sg9
g587
sg14
I6
sg15
I3
sg16
(lp627
g602
ag603
ag604
asbaF0.045999999999999999
aa(lp628
(imodeler.Context
Context
p629
(dp630
g4
g21
sg6
I4
sg7
I2
sg8
F0.078
sg9
g594
sg14
I6
sg15
I4
sg16
(lp631
g602
ag603
ag604
asbaF0.014
aa(lp632
(imodeler.Context
Context
p633
(dp634
g4
g5
sg6
I5
sg7
I2
sg8
F0.037999999999999999
sg9
g580
sg14
I6
sg15
I4
sg16
(lp635
g602
ag603
ag604
asbaF0.12
aa(lp636
(imodeler.Context
Context
p637
(dp638
g4
g21
sg6
I0
sg7
I2
sg8
F0.068000000000000005
sg9
g620
sg14
I6
sg15
I5
sg16
(lp639
g602
ag603
ag604
asbaF0.010999999999999999
aa(lp640
(imodeler.Context
Context
p641
(dp642
g4
g5
sg6
I2
sg7
I2
sg8
F0.031
sg9
g587
sg14
I6
sg15
I5
sg16
(lp643
g602
ag603
ag604
asbaF0.058999999999999997
aa(lp644
(imodeler.Context
Context
p645
(dp646
g4
g21
sg6
I4
sg7
I2
sg8
F0.056000000000000001
sg9
g594
sg14
I6
sg15
I6
sg16
(lp647
g602
ag603
ag604
asbaF0.019
aa(lp648
(imodeler.Context
Context
p649
(dp650
g4
g5
sg6
I5
sg7
I2
sg8
F0.027
sg9
g580
sg14
I6
sg15
I6
sg16
(lp651
g602
ag603
ag604
asbaF0.051999999999999998
aa(lp652
(imodeler.Context
Context
p653
(dp654
g4
g21
sg6
I0
sg7
I2
sg8
F0.050999999999999997
sg9
g620
sg14
I6
sg15
I7
sg16
(lp655
g602
ag603
ag604
asbaF0.017000000000000001
aa(lp656
(imodeler.Context
Context
p657
(dp658
g4
g5
sg6
I2
sg7
I2
sg8
F0.024
sg9
g587
sg14
I6
sg15
I7
sg16
(lp659
g602
ag603
ag604
asbaF0.075999999999999998
aa(lp660
(imodeler.Context
Context
p661
(dp662
g4
g21
sg6
I5
sg7
I2
sg8
F0.021999999999999999
sg9
g580
sg14
I6
sg15
I8
sg16
(lp663
g602
ag603
ag604
asbaF0.050999999999999997
aa(lp664
(imodeler.Context
Context
p665
(dp666
g4
g5
sg6
I2
sg7
I3
sg8
F0.0
sg9
g587
sg14
I6
sg15
I0
sg16
(lp667
g602
ag603
ag604
a(lp668
I10
ag47
aasbaF0.042000000000000003
aa(lp669
(imodeler.Context
Context
p670
(dp671
g4
g5
sg6
I5
sg7
I3
sg8
F0.019
sg9
g580
sg14
I6
sg15
I1
sg16
(lp672
g602
ag603
ag604
ag668
asbaF0.065000000000000002
aa(lp673
(imodeler.Context
Context
p674
(dp675
g4
g21
sg6
I0
sg7
I3
sg8
F0.036999999999999998
sg9
g620
sg14
I6
sg15
I2
sg16
(lp676
g602
ag603
ag604
ag668
asbaF0.029999999999999999
aa(lp677
(imodeler.Context
Context
p678
(dp679
g4
g5
sg6
I2
sg7
I3
sg8
F0.017000000000000001
sg9
g587
sg14
I6
sg15
I2
sg16
(lp680
g602
ag603
ag604
ag668
asbaF0.086999999999999994
aa(lp681
(imodeler.Context
Context
p682
(dp683
g4
g21
sg6
I4
sg7
I3
sg8
F0.033000000000000002
sg9
g594
sg14
I6
sg15
I3
sg16
(lp684
g602
ag603
ag604
ag668
asbaF0.029000000000000001
aa(lp685
(imodeler.Context
Context
p686
(dp687
g4
g5
sg6
I2
sg7
I3
sg8
F0.014999999999999999
sg9
g587
sg14
I6
sg15
I4
sg16
(lp688
g602
ag603
ag604
ag668
asbaF0.055
aa(lp689
(imodeler.Context
Context
p690
(dp691
g4
g21
sg6
I4
sg7
I3
sg8
F0.028000000000000001
sg9
g594
sg14
I6
sg15
I5
sg16
(lp692
g602
ag603
ag604
ag668
asbaF0.028000000000000001
aa(lp693
(imodeler.Context
Context
p694
(dp695
g4
g5
sg6
I5
sg7
I3
sg8
F0.014
sg9
g580
sg14
I6
sg15
I5
sg16
(lp696
g602
ag603
ag604
ag668
asbaF0.043999999999999997
aa(lp697
(imodeler.Context
Context
p698
(dp699
g4
g21
sg6
I0
sg7
I3
sg8
F0.027
sg9
g620
sg14
I6
sg15
I6
sg16
(lp700
g602
ag603
ag604
ag668
asbaF0.029000000000000001
aa(lp701
(imodeler.Context
Context
p702
(dp703
g4
g5
sg6
I2
sg7
I3
sg8
F0.012999999999999999
sg9
g587
sg14
I6
sg15
I6
sg16
(lp704
g602
ag603
ag604
ag668
asbaF0.062
aa(lp705
(imodeler.Context
Context
p706
(dp707
g4
g21
sg6
I4
sg7
I3
sg8
F0.025000000000000001
sg9
g594
sg14
I6
sg15
I7
sg16
(lp708
g602
ag603
ag604
ag668
asbaF0.031
aa(lp709
(imodeler.Context
Context
p710
(dp711
g4
g5
sg6
I5
sg7
I3
sg8
F0.012
sg9
g580
sg14
I6
sg15
I7
sg16
(lp712
g602
ag603
ag604
ag668
asbaF0.13200000000000001
aa(lp713
(imodeler.Context
Context
p714
(dp715
g4
g21
sg6
I0
sg7
I3
sg8
F0.024
sg9
g620
sg14
I6
sg15
I8
sg16
(lp716
g602
ag603
ag604
ag668
asbaF0.025000000000000001
aa(lp717
(imodeler.Context
Context
p718
(dp719
g4
g21
sg6
I2
sg7
I3
sg8
F0.010999999999999999
sg9
g587
sg14
I6
sg15
I8
sg16
(lp720
g602
ag603
ag604
ag668
asbaF0.048000000000000001
aa(lp721
(imodeler.Context
Context
p722
(dp723
g4
g21
sg6
I4
sg7
I3
sg8
F0.010999999999999999
sg9
g594
sg14
I6
sg15
I8
sg16
(lp724
g602
ag603
ag604
ag668
asbaF0.025999999999999999
aa(lp725
(imodeler.Context
Context
p726
(dp727
g4
g5
sg6
I5
sg7
I4
sg8
F0.0
sg9
g580
sg14
I6
sg15
I0
sg16
(lp728
g602
ag603
ag604
ag668
a(lp729
I7
ag33
aasbaF0.034000000000000002
aa(lp730
(imodeler.Context
Context
p731
(dp732
g4
g21
sg6
I0
sg7
I4
sg8
F0.010999999999999999
sg9
g620
sg14
I6
sg15
I1
sg16
(lp733
g602
ag603
ag604
ag668
ag729
asbaF0.014
aa(lp734
(imodeler.Context
Context
p735
(dp736
g4
g5
sg6
I2
sg7
I4
sg8
F0.010999999999999999
sg9
g587
sg14
I6
sg15
I1
sg16
(lp737
g602
ag603
ag604
ag668
ag729
asbaF0.059999999999999998
aa(lp738
(imodeler.Context
Context
p739
(dp740
g4
g21
sg6
I4
sg7
I4
sg8
F0.021000000000000001
sg9
g594
sg14
I6
sg15
I2
sg16
(lp741
g602
ag603
ag604
ag668
ag729
asbaF0.017999999999999999
aa(lp742
(imodeler.Context
Context
p743
(dp744
g4
g5
sg6
I5
sg7
I4
sg8
F0.01
sg9
g580
sg14
I6
sg15
I2
sg16
(lp745
g602
ag603
ag604
ag668
ag729
asbaF0.079000000000000001
aa(lp746
(imodeler.Context
Context
p747
(dp748
g4
g21
sg6
I0
sg7
I4
sg8
F0.02
sg9
g620
sg14
I6
sg15
I3
sg16
(lp749
g602
ag603
ag604
ag668
ag729
asbaF0.017000000000000001
aa(lp750
(imodeler.Context
Context
p751
(dp752
g4
g21
sg6
I1
sg7
I4
sg8
F0.02
sg9
(lp753
(lp754
I5
ag33
aa(lp755
I13
ag12
aasg14
I6
sg15
I3
sg16
(lp756
g602
ag603
ag604
ag668
ag729
asbaF0.014
aa(lp757
(imodeler.Context
Context
p758
(dp759
g4
g5
sg6
I2
sg7
I4
sg8
F0.01
sg9
g587
sg14
I6
sg15
I3
sg16
(lp760
g602
ag603
ag604
ag668
ag729
asbaF0.035000000000000003
aa(lp761
(imodeler.Context
Context
p762
(dp763
g4
g21
sg6
I4
sg7
I4
sg8
F0.019
sg9
g594
sg14
I6
sg15
I4
sg16
(lp764
g602
ag603
ag604
ag668
ag729
asbaF0.025999999999999999
aa(lp765
(imodeler.Context
Context
p766
(dp767
g4
g21
sg6
I1
sg7
I4
sg8
F0.017999999999999999
sg9
g753
sg14
I6
sg15
I5
sg16
(lp768
g602
ag603
ag604
ag668
ag729
asbaF0.014
aa(lp769
(imodeler.Context
Context
p770
(dp771
g4
g5
sg6
I2
sg7
I4
sg8
F0.0089999999999999993
sg9
g587
sg14
I6
sg15
I5
sg16
(lp772
g602
ag603
ag604
ag668
ag729
asbaF0.053999999999999999
aa(lp773
(imodeler.Context
Context
p774
(dp775
g4
g21
sg6
I4
sg7
I4
sg8
F0.017000000000000001
sg9
g594
sg14
I6
sg15
I6
sg16
(lp776
g602
ag603
ag604
ag668
ag729
asbaF0.025000000000000001
aa(lp777
(imodeler.Context
Context
p778
(dp779
g4
g5
sg6
I5
sg7
I4
sg8
F0.0089999999999999993
sg9
g580
sg14
I6
sg15
I6
sg16
(lp780
g602
ag603
ag604
ag668
ag729
asbaF0.050999999999999997
aa(lp781
(imodeler.Context
Context
p782
(dp783
g4
g21
sg6
I0
sg7
I4
sg8
F0.017000000000000001
sg9
g620
sg14
I6
sg15
I7
sg16
(lp784
g602
ag603
ag604
ag668
ag729
asbaF0.016
aa(lp785
(imodeler.Context
Context
p786
(dp787
g4
g21
sg6
I1
sg7
I4
sg8
F0.016
sg9
g753
sg14
I6
sg15
I7
sg16
(lp788
g602
ag603
ag604
ag668
ag729
asbaF0.010999999999999999
aa(lp789
(imodeler.Context
Context
p790
(dp791
g4
g5
sg6
I2
sg7
I4
sg8
F0.0080000000000000002
sg9
g587
sg14
I6
sg15
I7
sg16
(lp792
g602
ag603
ag604
ag668
ag729
asbaF0.059999999999999998
aa(lp793
(imodeler.Context
Context
p794
(dp795
g4
g21
sg6
I4
sg7
I4
sg8
F0.016
sg9
g594
sg14
I6
sg15
I8
sg16
(lp796
g602
ag603
ag604
ag668
ag729
asbaF0.033000000000000002
aa(lp797
(imodeler.Context
Context
p798
(dp799
g4
g21
sg6
I5
sg7
I4
sg8
F0.0080000000000000002
sg9
g580
sg14
I6
sg15
I8
sg16
(lp800
g602
ag603
ag604
ag668
ag729
asbaF0.044999999999999998
aa(lp801
(imodeler.Context
Context
p802
(dp803
g4
g21
sg6
I1
sg7
I4
sg8
F0.0080000000000000002
sg9
g753
sg14
I6
sg15
I8
sg16
(lp804
g602
ag603
ag604
ag668
ag729
asbaF0.21099999999999999
aa(lp805
(imodeler.Context
Context
p806
(dp807
g4
g5
sg6
I4
sg7
I1
sg8
F0.33300000000000002
sg9
(lp808
(lp809
I14
ag33
aa(lp810
I10
ag47
aasg14
I6
sg15
I0
sg16
(lp811
sbaF0.156
aa(lp812
(imodeler.Context
Context
p813
(dp814
g4
g21
sg6
I5
sg7
I1
sg8
F0.214
sg9
(lp815
(lp816
I7
ag33
aa(lp817
I11
ag47
aasg14
I6
sg15
I1
sg16
(lp818
sbaF0.040000000000000001
aa(lp819
(imodeler.Context
Context
p820
(dp821
g4
g21
sg6
I1
sg7
I1
sg8
F0.125
sg9
(lp822
(lp823
I7
ag12
aa(lp824
I12
ag12
aasg14
I6
sg15
I1
sg16
(lp825
sbaF0.027
aa(lp826
(imodeler.Context
Context
p827
(dp828
g4
g5
sg6
I1
sg7
I2
sg8
F0.073999999999999996
sg9
g822
sg14
I6
sg15
I1
sg16
(lp829
(lp830
I11
ag12
aa(lp831
I12
ag25
aa(lp832
I3
ag47
aasbaF0.016
aa(lp833
(imodeler.Context
Context
p834
(dp835
g4
g5
sg6
I1
sg7
I2
sg8
F0.050999999999999997
sg9
g822
sg14
I6
sg15
I3
sg16
(lp836
g830
ag831
ag832
asbaF0.098000000000000004
aa(lp837
(imodeler.Context
Context
p838
(dp839
g4
g5
sg6
I1
sg7
I2
sg8
F0.039
sg9
g822
sg14
I6
sg15
I5
sg16
(lp840
g830
ag831
ag832
asbaF0.041000000000000002
aa(lp841
(imodeler.Context
Context
p842
(dp843
g4
g5
sg6
I1
sg7
I2
sg8
F0.032000000000000001
sg9
g822
sg14
I6
sg15
I7
sg16
(lp844
g830
ag831
ag832
asbaF0.094
aa(lp845
(imodeler.Context
Context
p846
(dp847
g4
g5
sg6
I1
sg7
I3
sg8
F0.0
sg9
g822
sg14
I6
sg15
I0
sg16
(lp848
g830
ag831
ag832
a(lp849
I7
ag47
aasbaF0.058999999999999997
aa(lp850
(imodeler.Context
Context
p851
(dp852
g4
g5
sg6
I1
sg7
I3
sg8
F0.025000000000000001
sg9
g822
sg14
I6
sg15
I2
sg16
(lp853
g830
ag831
ag832
ag849
asbaF0.051999999999999998
aa(lp854
(imodeler.Context
Context
p855
(dp856
g4
g5
sg6
I1
sg7
I3
sg8
F0.019
sg9
g822
sg14
I6
sg15
I6
sg16
(lp857
g830
ag831
ag832
ag849
asbaF0.056000000000000001
aa(lp858
(imodeler.Context
Context
p859
(dp860
g4
g5
sg6
I1
sg7
I4
sg8
F0.016
sg9
g822
sg14
I6
sg15
I1
sg16
(lp861
g830
ag831
ag832
ag849
a(lp862
I2
ag12
aasbaF0.049000000000000002
aa(lp863
(imodeler.Context
Context
p864
(dp865
g4
g5
sg6
I1
sg7
I4
sg8
F0.014999999999999999
sg9
g822
sg14
I6
sg15
I3
sg16
(lp866
g830
ag831
ag832
ag849
ag862
asbaF0.037999999999999999
aa(lp867
(imodeler.Context
Context
p868
(dp869
g4
g5
sg6
I1
sg7
I4
sg8
F0.012999999999999999
sg9
g822
sg14
I6
sg15
I7
sg16
(lp870
g830
ag831
ag832
ag849
ag862
asbaF0.049000000000000002
aa(lp871
(imodeler.Context
Context
p872
(dp873
g4
g21
sg6
I0
sg7
I1
sg8
F0.0
sg9
(lp874
(lp875
I8
ag25
aa(lp876
I10
ag25
aasg14
I6
sg15
I0
sg16
(lp877
sbaF0.016
aa(lp878
(imodeler.Context
Context
p879
(dp880
g4
g5
sg6
I0
sg7
I3
sg8
F0.0
sg9
g874
sg14
I6
sg15
I0
sg16
(lp881
(lp882
I2
ag25
aa(lp883
I8
ag47
aa(lp884
I4
ag25
aa(lp885
I9
ag12
aasbaF0.025999999999999999
aa(lp886
(imodeler.Context
Context
p887
(dp888
g4
g5
sg6
I1
sg7
I3
sg8
F0.086999999999999994
sg9
(lp889
(lp890
I5
ag47
aa(lp891
I9
ag25
aasg14
I6
sg15
I1
sg16
(lp892
g882
ag883
ag884
ag885
asbaF0.051999999999999998
aa(lp893
(imodeler.Context
Context
p894
(dp895
g4
g5
sg6
I0
sg7
I3
sg8
F0.073999999999999996
sg9
g874
sg14
I6
sg15
I2
sg16
(lp896
g882
ag883
ag884
ag885
asbaF0.064000000000000001
aa(lp897
(imodeler.Context
Context
p898
(dp899
g4
g5
sg6
I1
sg7
I3
sg8
F0.065000000000000002
sg9
g889
sg14
I6
sg15
I3
sg16
(lp900
g882
ag883
ag884
ag885
asbaF0.26600000000000001
aa(lp901
(imodeler.Context
Context
p902
(dp903
g4
g5
sg6
I0
sg7
I3
sg8
F0.057000000000000002
sg9
g874
sg14
I6
sg15
I4
sg16
(lp904
g882
ag883
ag884
ag885
asbaF0.028000000000000001
aa(lp905
(imodeler.Context
Context
p906
(dp907
g4
g5
sg6
I1
sg7
I3
sg8
F0.050999999999999997
sg9
g889
sg14
I6
sg15
I5
sg16
(lp908
g882
ag883
ag884
ag885
asbaF0.26500000000000001
aa(lp909
(imodeler.Context
Context
p910
(dp911
g4
g5
sg6
I0
sg7
I3
sg8
F0.047
sg9
g874
sg14
I6
sg15
I6
sg16
(lp912
g882
ag883
ag884
ag885
asbaF0.025000000000000001
aa(lp913
(imodeler.Context
Context
p914
(dp915
g4
g5
sg6
I0
sg7
I4
sg8
F0.035999999999999997
sg9
g874
sg14
I6
sg15
I1
sg16
(lp916
g882
ag883
ag884
ag885
a(lp917
I9
ag33
aasbaF0.028000000000000001
aa(lp918
(imodeler.Context
Context
p919
(dp920
g4
g5
sg6
I0
sg7
I4
sg8
F0.032000000000000001
sg9
g874
sg14
I6
sg15
I3
sg16
(lp921
g882
ag883
ag884
ag885
ag917
asbaF0.028000000000000001
aa(lp922
(imodeler.Context
Context
p923
(dp924
g4
g5
sg6
I1
sg7
I4
sg8
F0.029999999999999999
sg9
g889
sg14
I6
sg15
I4
sg16
(lp925
g882
ag883
ag884
ag885
ag917
asbaF0.27000000000000002
aa(lp926
(imodeler.Context
Context
p927
(dp928
g4
g5
sg6
I0
sg7
I4
sg8
F0.028000000000000001
sg9
g874
sg14
I6
sg15
I5
sg16
(lp929
g882
ag883
ag884
ag885
ag917
asbaF0.025999999999999999
aa(lp930
(imodeler.Context
Context
p931
(dp932
g4
g5
sg6
I1
sg7
I4
sg8
F0.027
sg9
g889
sg14
I6
sg15
I6
sg16
(lp933
g882
ag883
ag884
ag885
ag917
asbaF0.27000000000000002
aa(lp934
(imodeler.Context
Context
p935
(dp936
g4
g5
sg6
I0
sg7
I4
sg8
F0.025000000000000001
sg9
g874
sg14
I6
sg15
I7
sg16
(lp937
g882
ag883
ag884
ag885
ag917
asbaF0.028000000000000001
aa(lp938
(imodeler.Context
Context
p939
(dp940
g4
g5
sg6
I0
sg7
I1
sg8
F1.0
sg9
(lp941
(lp942
I7
ag47
aa(lp943
I7
ag33
aasg14
I6
sg15
I0
sg16
(lp944
sbaF0.073999999999999996
aa(lp945
(imodeler.Context
Context
p946
(dp947
g4
g5
sg6
I0
sg7
I2
sg8
F0.080000000000000002
sg9
g941
sg14
I6
sg15
I2
sg16
(lp948
(lp949
I2
ag25
aa(lp950
I3
ag12
aa(lp951
I11
ag33
aasbaF0.025000000000000001
aa(lp952
(imodeler.Context
Context
p953
(dp954
g4
g5
sg6
I0
sg7
I2
sg8
F0.060999999999999999
sg9
g941
sg14
I6
sg15
I4
sg16
(lp955
g949
ag950
ag951
asbaF0.040000000000000001
aa(lp956
(imodeler.Context
Context
p957
(dp958
g4
g5
sg6
I0
sg7
I2
sg8
F0.049000000000000002
sg9
g941
sg14
I6
sg15
I6
sg16
(lp959
g949
ag950
ag951
asbaF0.032000000000000001
aa(lp960
(imodeler.Context
Context
p961
(dp962
g4
g5
sg6
I0
sg7
I3
sg8
F0.037999999999999999
sg9
g941
sg14
I6
sg15
I1
sg16
(lp963
g949
ag950
ag951
a(lp964
I4
ag25
aasbaF0.107
aa(lp965
(imodeler.Context
Context
p966
(dp967
g4
g5
sg6
I5
sg7
I3
sg8
F0.035000000000000003
sg9
(lp968
(lp969
I11
ag25
aa(lp970
I10
ag25
aasg14
I6
sg15
I2
sg16
(lp971
g949
ag950
ag951
ag964
asbaF0.129
aa(lp972
(imodeler.Context
Context
p973
(dp974
g4
g5
sg6
I0
sg7
I3
sg8
F0.033000000000000002
sg9
g941
sg14
I6
sg15
I3
sg16
(lp975
g949
ag950
ag951
ag964
asbaF0.02
aa(lp976
(imodeler.Context
Context
p977
(dp978
g4
g5
sg6
I5
sg7
I3
sg8
F0.031
sg9
g968
sg14
I6
sg15
I4
sg16
(lp979
g949
ag950
ag951
ag964
asbaF0.039
aa(lp980
(imodeler.Context
Context
p981
(dp982
g4
g5
sg6
I0
sg7
I3
sg8
F0.029000000000000001
sg9
g941
sg14
I6
sg15
I5
sg16
(lp983
g949
ag950
ag951
ag964
asbaF0.037999999999999999
aa(lp984
(imodeler.Context
Context
p985
(dp986
g4
g5
sg6
I0
sg7
I3
sg8
F0.025999999999999999
sg9
g941
sg14
I6
sg15
I7
sg16
(lp987
g949
ag950
ag951
ag964
asbaF0.042000000000000003
aa(lp988
(imodeler.Context
Context
p989
(dp990
g4
g21
sg6
I5
sg7
I3
sg8
F0.025000000000000001
sg9
g968
sg14
I6
sg15
I8
sg16
(lp991
g949
ag950
ag951
ag964
asbaF0.027
aa(lp992
(imodeler.Context
Context
p993
(dp994
g4
g5
sg6
I0
sg7
I4
sg8
F0.0
sg9
g941
sg14
I6
sg15
I0
sg16
(lp995
g949
ag950
ag951
ag964
a(lp996
I11
ag47
aasbaF0.039
aa(lp997
(imodeler.Context
Context
p998
(dp999
g4
g5
sg6
I0
sg7
I4
sg8
F0.021999999999999999
sg9
g941
sg14
I6
sg15
I2
sg16
(lp1000
g949
ag950
ag951
ag964
ag996
asbaF0.086999999999999994
aa(lp1001
(imodeler.Context
Context
p1002
(dp1003
g4
g5
sg6
I5
sg7
I4
sg8
F0.021999999999999999
sg9
g968
sg14
I6
sg15
I3
sg16
(lp1004
g949
ag950
ag951
ag964
ag996
asbaF0.035999999999999997
aa(lp1005
(imodeler.Context
Context
p1006
(dp1007
g4
g5
sg6
I0
sg7
I4
sg8
F0.021000000000000001
sg9
g941
sg14
I6
sg15
I4
sg16
(lp1008
g949
ag950
ag951
ag964
ag996
asbaF0.086999999999999994
aa(lp1009
(imodeler.Context
Context
p1010
(dp1011
g4
g5
sg6
I5
sg7
I4
sg8
F0.02
sg9
g968
sg14
I6
sg15
I5
sg16
(lp1012
g949
ag950
ag951
ag964
ag996
asbaF0.036999999999999998
aa(lp1013
(imodeler.Context
Context
p1014
(dp1015
g4
g5
sg6
I0
sg7
I4
sg8
F0.019
sg9
g941
sg14
I6
sg15
I6
sg16
(lp1016
g949
ag950
ag951
ag964
ag996
asbaF0.058999999999999997
aa(lp1017
(imodeler.Context
Context
p1018
(dp1019
g4
g5
sg6
I4
sg7
I1
sg8
F1.0
sg9
(lp1020
(lp1021
I14
ag25
aa(lp1022
I13
ag47
aasg14
I6
sg15
I0
sg16
(lp1023
sbaF0.182
aa(lp1024
(imodeler.Context
Context
p1025
(dp1026
g4
g21
sg6
I1
sg7
I1
sg8
F0.5
sg9
(lp1027
(lp1028
I7
ag33
aa(lp1029
I13
ag25
aasg14
I6
sg15
I1
sg16
(lp1030
sbaF0.012999999999999999
aa(lp1031
(imodeler.Context
Context
p1032
(dp1033
g4
g5
sg6
I4
sg7
I3
sg8
F0.052999999999999999
sg9
g1020
sg14
I6
sg15
I2
sg16
(lp1034
(lp1035
I5
ag25
aa(lp1036
I2
ag12
aa(lp1037
I11
ag33
aa(lp1038
I13
ag12
aasbaF0.029000000000000001
aa(lp1039
(imodeler.Context
Context
p1040
(dp1041
g4
g5
sg6
I4
sg7
I3
sg8
F0.040000000000000001
sg9
g1020
sg14
I6
sg15
I4
sg16
(lp1042
g1035
ag1036
ag1037
ag1038
asbaF0.034000000000000002
aa(lp1043
(imodeler.Context
Context
p1044
(dp1045
g4
g5
sg6
I4
sg7
I3
sg8
F0.032000000000000001
sg9
g1020
sg14
I6
sg15
I6
sg16
(lp1046
g1035
ag1036
ag1037
ag1038
asbaF0.028000000000000001
aa(lp1047
(imodeler.Context
Context
p1048
(dp1049
g4
g5
sg6
I4
sg7
I4
sg8
F0.025999999999999999
sg9
g1020
sg14
I6
sg15
I1
sg16
(lp1050
g1035
ag1036
ag1037
ag1038
a(lp1051
I10
ag12
aasbaF0.031
aa(lp1052
(imodeler.Context
Context
p1053
(dp1054
g4
g5
sg6
I4
sg7
I4
sg8
F0.023
sg9
g1020
sg14
I6
sg15
I3
sg16
(lp1055
g1035
ag1036
ag1037
ag1038
ag1051
asbaF0.029999999999999999
aa(lp1056
(imodeler.Context
Context
p1057
(dp1058
g4
g5
sg6
I4
sg7
I4
sg8
F0.021000000000000001
sg9
g1020
sg14
I6
sg15
I5
sg16
(lp1059
g1035
ag1036
ag1037
ag1038
ag1051
asbaF0.035000000000000003
aa(lp1060
(imodeler.Context
Context
p1061
(dp1062
g4
g5
sg6
I4
sg7
I4
sg8
F0.02
sg9
g1020
sg14
I6
sg15
I7
sg16
(lp1063
g1035
ag1036
ag1037
ag1038
ag1051
asbaF0.031
aa(lp1064
(imodeler.Context
Context
p1065
(dp1066
g4
g5
sg6
I4
sg7
I4
sg8
F0.021000000000000001
sg9
(lp1067
(lp1068
I14
ag33
aa(lp1069
I7
ag25
aasg14
I6
sg15
I2
sg16
(lp1070
(lp1071
I14
ag25
aa(lp1072
I4
ag12
aa(lp1073
I11
ag12
aa(lp1074
I7
ag33
aa(lp1075
I11
ag33
aasbaF0.091999999999999998
aa(lp1076
(imodeler.Context
Context
p1077
(dp1078
g4
g5
sg6
I4
sg7
I4
sg8
F0.02
sg9
g1067
sg14
I6
sg15
I4
sg16
(lp1079
g1071
ag1072
ag1073
ag1074
ag1075
asbaF0.12
aa(lp1080
(imodeler.Context
Context
p1081
(dp1082
g4
g5
sg6
I4
sg7
I4
sg8
F0.017999999999999999
sg9
g1067
sg14
I6
sg15
I6
sg16
(lp1083
g1071
ag1072
ag1073
ag1074
ag1075
asbaF0.066000000000000003
aa(lp1084
(imodeler.Context
Context
p1085
(dp1086
g4
g21
sg6
I5
sg7
I1
sg8
F0.5
sg9
(lp1087
(lp1088
I11
ag12
aa(lp1089
I12
ag33
aasg14
I6
sg15
I0
sg16
(lp1090
sbaF0.040000000000000001
aa(lp1091
(imodeler.Context
Context
p1092
(dp1093
g4
g21
sg6
I0
sg7
I1
sg8
F0.33300000000000002
sg9
(lp1094
(lp1095
I9
ag25
aa(lp1096
I6
ag47
aasg14
I6
sg15
I0
sg16
(lp1097
sbaF0.031
aa(lp1098
(imodeler.Context
Context
p1099
(dp1100
g4
g5
sg6
I1
sg7
I1
sg8
F0.10000000000000001
sg9
(lp1101
(lp1102
I13
ag33
aa(lp1103
I13
ag47
aasg14
I6
sg15
I0
sg16
(lp1104
sbaF0.067000000000000004
aa(lp1105
(imodeler.Context
Context
p1106
(dp1107
g4
g21
sg6
I5
sg7
I1
sg8
F0.125
sg9
g1087
sg14
I6
sg15
I1
sg16
(lp1108
sbaF0.040000000000000001
aa(lp1109
(imodeler.Context
Context
p1110
(dp1111
g4
g5
sg6
I1
sg7
I2
sg8
F0.0
sg9
g1101
sg14
I6
sg15
I0
sg16
(lp1112
(lp1113
I8
ag47
aa(lp1114
I8
ag12
aa(lp1115
I12
ag47
aasbaF0.26700000000000002
aa(lp1116
(imodeler.Context
Context
p1117
(dp1118
g4
g21
sg6
I0
sg7
I2
sg8
F0.114
sg9
g1094
sg14
I6
sg15
I2
sg16
(lp1119
g1113
ag1114
ag1115
asbaF0.028000000000000001
aa(lp1120
(imodeler.Context
Context
p1121
(dp1122
g4
g5
sg6
I1
sg7
I2
sg8
F0.053999999999999999
sg9
g1101
sg14
I6
sg15
I2
sg16
(lp1123
g1113
ag1114
ag1115
asbaF0.17000000000000001
aa(lp1124
(imodeler.Context
Context
p1125
(dp1126
g4
g5
sg6
I1
sg7
I2
sg8
F0.037999999999999999
sg9
g1101
sg14
I6
sg15
I4
sg16
(lp1127
g1113
ag1114
ag1115
asbaF0.17599999999999999
aa(lp1128
(imodeler.Context
Context
p1129
(dp1130
g4
g5
sg6
I1
sg7
I2
sg8
F0.029000000000000001
sg9
g1101
sg14
I6
sg15
I6
sg16
(lp1131
g1113
ag1114
ag1115
asbaF0.17100000000000001
aa(lp1132
(imodeler.Context
Context
p1133
(dp1134
g4
g21
sg6
I0
sg7
I3
sg8
F0.039
sg9
g1094
sg14
I6
sg15
I3
sg16
(lp1135
g1113
ag1114
ag1115
a(lp1136
I12
ag25
aasbaF0.023
aa(lp1137
(imodeler.Context
Context
p1138
(dp1139
g4
g21
sg6
I0
sg7
I3
sg8
F0.035000000000000003
sg9
g1094
sg14
I6
sg15
I5
sg16
(lp1140
g1113
ag1114
ag1115
ag1136
asbaF0.023
aa(lp1141
(imodeler.Context
Context
p1142
(dp1143
g4
g21
sg6
I0
sg7
I4
sg8
F0.025000000000000001
sg9
g1094
sg14
I6
sg15
I4
sg16
(lp1144
g1113
ag1114
ag1115
ag1136
a(lp1145
I2
ag47
aasbaF0.021000000000000001
aa(lp1146
(imodeler.Context
Context
p1147
(dp1148
g4
g21
sg6
I0
sg7
I4
sg8
F0.024
sg9
g1094
sg14
I6
sg15
I6
sg16
(lp1149
g1113
ag1114
ag1115
ag1136
ag1145
asbaF0.021000000000000001
aa(lp1150
(imodeler.Context
Context
p1151
(dp1152
g4
g21
sg6
I4
sg7
I1
sg8
F0.33300000000000002
sg9
(lp1153
(lp1154
I9
ag47
aa(lp1155
I10
ag33
aasg14
I6
sg15
I0
sg16
(lp1156
sbaF0.017999999999999999
aa(lp1157
(imodeler.Context
Context
p1158
(dp1159
g4
g5
sg6
I5
sg7
I1
sg8
F0.10000000000000001
sg9
(lp1160
(lp1161
I9
ag33
aa(lp1162
I9
ag25
aasg14
I6
sg15
I0
sg16
(lp1163
sbaF0.23000000000000001
aa(lp1164
(imodeler.Context
Context
p1165
(dp1166
g4
g21
sg6
I4
sg7
I3
sg8
F0.088999999999999996
sg9
g1153
sg14
I6
sg15
I2
sg16
(lp1167
(lp1168
I3
ag12
aa(lp1169
I7
ag47
aa(lp1170
I7
ag12
aa(lp1171
I8
ag33
aasbaF0.036999999999999998
aa(lp1172
(imodeler.Context
Context
p1173
(dp1174
g4
g21
sg6
I4
sg7
I3
sg8
F0.066000000000000003
sg9
g1153
sg14
I6
sg15
I4
sg16
(lp1175
g1168
ag1169
ag1170
ag1171
asbaF0.027
aa(lp1176
(imodeler.Context
Context
p1177
(dp1178
g4
g21
sg6
I4
sg7
I3
sg8
F0.051999999999999998
sg9
g1153
sg14
I6
sg15
I6
sg16
(lp1179
g1168
ag1169
ag1170
ag1171
asbaF0.024
aa(lp1180
(imodeler.Context
Context
p1181
(dp1182
g4
g21
sg6
I4
sg7
I4
sg8
F0.02
sg9
g1153
sg14
I6
sg15
I1
sg16
(lp1183
g1168
ag1169
ag1170
ag1171
a(lp1184
I5
ag47
aasbaF0.029999999999999999
aa(lp1185
(imodeler.Context
Context
p1186
(dp1187
g4
g21
sg6
I4
sg7
I4
sg8
F0.041000000000000002
sg9
g1153
sg14
I6
sg15
I7
sg16
(lp1188
g1168
ag1169
ag1170
ag1171
ag1184
asbaF0.042000000000000003
aa(lp1189
(imodeler.Context
Context
p1190
(dp1191
g4
g5
sg6
I0
sg7
I4
sg8
F0.025000000000000001
sg9
(lp1192
(lp1193
I5
ag12
aa(lp1194
I14
ag12
aasg14
I6
sg15
I8
sg16
(lp1195
g1168
ag1169
ag1170
ag1171
ag1184
asbaF0.028000000000000001
aa(lp1196
(imodeler.Context
Context
p1197
(dp1198
g4
g5
sg6
I1
sg7
I4
sg8
F0.025000000000000001
sg9
(lp1199
(lp1200
I11
ag33
aa(lp1201
I8
ag47
aasg14
I6
sg15
I9
sg16
(lp1202
g1168
ag1169
ag1170
ag1171
ag1184
asbaF0.041000000000000002
aa(lp1203
(imodeler.Context
Context
p1204
(dp1205
g4
g21
sg6
I4
sg7
I4
sg8
F0.035000000000000003
sg9
g1153
sg14
I6
sg15
I10
sg16
(lp1206
g1168
ag1169
ag1170
ag1171
ag1184
asbaF0.029000000000000001
aa(lp1207
(imodeler.Context
Context
p1208
(dp1209
g4
g5
sg6
I0
sg7
I4
sg8
F0.021999999999999999
sg9
g1192
sg14
I6
sg15
I11
sg16
(lp1210
g1168
ag1169
ag1170
ag1171
ag1184
asbaF0.029999999999999999
aa(lp1211
(imodeler.Context
Context
p1212
(dp1213
g4
g21
sg6
I1
sg7
I4
sg8
F0.021000000000000001
sg9
g1199
sg14
I6
sg15
I12
sg16
(lp1214
g1168
ag1169
ag1170
ag1171
ag1184
asbaF0.025000000000000001
aa(lp1215
(imodeler.Context
Context
p1216
(dp1217
g4
g21
sg6
I4
sg7
I4
sg8
F0.021000000000000001
sg9
g1153
sg14
I6
sg15
I12
sg16
(lp1218
g1168
ag1169
ag1170
ag1171
ag1184
asbaF0.012999999999999999
aa(lp1219
(imodeler.Context
Context
p1220
(dp1221
g4
g21
sg6
I0
sg7
I1
sg8
F0.25
sg9
(lp1222
(lp1223
I10
ag47
aa(lp1224
I11
ag47
aasg14
I6
sg15
I0
sg16
(lp1225
sbaF0.021000000000000001
aa(lp1226
(imodeler.Context
Context
p1227
(dp1228
g4
g21
sg6
I1
sg7
I1
sg8
F0.0
sg9
(lp1229
(lp1230
I8
ag25
aa(lp1231
I9
ag33
aasg14
I6
sg15
I0
sg16
(lp1232
sbaF0.034000000000000002
aa(lp1233
(imodeler.Context
Context
p1234
(dp1235
g4
g5
sg6
I0
sg7
I2
sg8
F0.154
sg9
g1222
sg14
I6
sg15
I1
sg16
(lp1236
(lp1237
I9
ag25
aa(lp1238
I8
ag12
aa(lp1239
I12
ag25
aasbaF0.029000000000000001
aa(lp1240
(imodeler.Context
Context
p1241
(dp1242
g4
g5
sg6
I1
sg7
I2
sg8
F0.21099999999999999
sg9
g1229
sg14
I6
sg15
I2
sg16
(lp1243
g1237
ag1238
ag1239
asbaF0.012999999999999999
aa(lp1244
(imodeler.Context
Context
p1245
(dp1246
g4
g5
sg6
I4
sg7
I2
sg8
F0.16
sg9
(lp1247
(lp1248
I12
ag12
aa(lp1249
I2
ag25
aasg14
I6
sg15
I3
sg16
(lp1250
g1237
ag1238
ag1239
asbaF0.055
aa(lp1251
(imodeler.Context
Context
p1252
(dp1253
g4
g5
sg6
I0
sg7
I2
sg8
F0.129
sg9
g1222
sg14
I6
sg15
I4
sg16
(lp1254
g1237
ag1238
ag1239
asbaF0.025000000000000001
aa(lp1255
(imodeler.Context
Context
p1256
(dp1257
g4
g5
sg6
I1
sg7
I2
sg8
F0.108
sg9
g1229
sg14
I6
sg15
I5
sg16
(lp1258
g1237
ag1238
ag1239
asbaF0.012999999999999999
aa(lp1259
(imodeler.Context
Context
p1260
(dp1261
g4
g5
sg6
I4
sg7
I2
sg8
F0.092999999999999999
sg9
g1247
sg14
I6
sg15
I6
sg16
(lp1262
g1237
ag1238
ag1239
asbaF0.029999999999999999
aa(lp1263
(imodeler.Context
Context
p1264
(dp1265
g4
g5
sg6
I0
sg7
I2
sg8
F0.082000000000000003
sg9
g1222
sg14
I6
sg15
I7
sg16
(lp1266
g1237
ag1238
ag1239
asbaF0.019
aa(lp1267
(imodeler.Context
Context
p1268
(dp1269
g4
g5
sg6
I1
sg7
I2
sg8
F0.072999999999999995
sg9
g1229
sg14
I6
sg15
I8
sg16
(lp1270
g1237
ag1238
ag1239
asbaF0.056000000000000001
aa(lp1271
(imodeler.Context
Context
p1272
(dp1273
g4
g5
sg6
I4
sg7
I2
sg8
F0.066000000000000003
sg9
g1247
sg14
I6
sg15
I9
sg16
(lp1274
g1237
ag1238
ag1239
asbaF0.050000000000000003
aa(lp1275
(imodeler.Context
Context
p1276
(dp1277
g4
g5
sg6
I0
sg7
I2
sg8
F0.059999999999999998
sg9
g1222
sg14
I6
sg15
I10
sg16
(lp1278
g1237
ag1238
ag1239
asbaF0.027
aa(lp1279
(imodeler.Context
Context
p1280
(dp1281
g4
g5
sg6
I1
sg7
I2
sg8
F0.055
sg9
g1229
sg14
I6
sg15
I11
sg16
(lp1282
g1237
ag1238
ag1239
asbaF0.10299999999999999
aa(lp1283
(imodeler.Context
Context
p1284
(dp1285
g4
g21
sg6
I4
sg7
I2
sg8
F0.050999999999999997
sg9
g1247
sg14
I6
sg15
I12
sg16
(lp1286
g1237
ag1238
ag1239
asbaF0.039
aa(lp1287
(imodeler.Context
Context
p1288
(dp1289
g4
g21
sg6
I0
sg7
I2
sg8
F0.025000000000000001
sg9
g1222
sg14
I6
sg15
I12
sg16
(lp1290
g1237
ag1238
ag1239
asbaF0.060999999999999999
aa(lp1291
(imodeler.Context
Context
p1292
(dp1293
g4
g5
sg6
I0
sg7
I3
sg8
F0.031
sg9
g1222
sg14
I6
sg15
I8
sg16
(lp1294
g1237
ag1238
ag1239
a(lp1295
I12
ag33
aasbaF0.034000000000000002
aa(lp1296
(imodeler.Context
Context
p1297
(dp1298
g4
g5
sg6
I1
sg7
I3
sg8
F0.029999999999999999
sg9
g1229
sg14
I6
sg15
I9
sg16
(lp1299
g1237
ag1238
ag1239
ag1295
asbaF0.041000000000000002
aa(lp1300
(imodeler.Context
Context
p1301
(dp1302
g4
g5
sg6
I4
sg7
I3
sg8
F0.029000000000000001
sg9
g1247
sg14
I6
sg15
I10
sg16
(lp1303
g1237
ag1238
ag1239
ag1295
asbaF0.067000000000000004
aa(lp1304
(imodeler.Context
Context
p1305
(dp1306
g4
g5
sg6
I0
sg7
I3
sg8
F0.028000000000000001
sg9
g1222
sg14
I6
sg15
I11
sg16
(lp1307
g1237
ag1238
ag1239
ag1295
asbaF0.029999999999999999
aa(lp1308
(imodeler.Context
Context
p1309
(dp1310
g4
g21
sg6
I4
sg7
I3
sg8
F0.012999999999999999
sg9
g1247
sg14
I6
sg15
I12
sg16
(lp1311
g1237
ag1238
ag1239
ag1295
asbaF0.083000000000000004
aa(lp1312
(imodeler.Context
Context
p1313
(dp1314
g4
g5
sg6
I4
sg7
I4
sg8
F0.02
sg9
g1247
sg14
I6
sg15
I8
sg16
(lp1315
g1237
ag1238
ag1239
ag1295
a(lp1316
I2
ag33
aasbaF0.106
aa(lp1317
(imodeler.Context
Context
p1318
(dp1319
g4
g5
sg6
I0
sg7
I4
sg8
F0.02
sg9
g1222
sg14
I6
sg15
I9
sg16
(lp1320
g1237
ag1238
ag1239
ag1295
ag1316
asbaF0.071999999999999995
aa(lp1321
(imodeler.Context
Context
p1322
(dp1323
g4
g5
sg6
I1
sg7
I4
sg8
F0.019
sg9
g1229
sg14
I6
sg15
I10
sg16
(lp1324
g1237
ag1238
ag1239
ag1295
ag1316
asbaF0.040000000000000001
aa(lp1325
(imodeler.Context
Context
p1326
(dp1327
g4
g5
sg6
I4
sg7
I4
sg8
F0.017999999999999999
sg9
g1247
sg14
I6
sg15
I11
sg16
(lp1328
g1237
ag1238
ag1239
ag1295
ag1316
asbaF0.106
aa(lp1329
(imodeler.Context
Context
p1330
(dp1331
g4
g21
sg6
I0
sg7
I3
sg8
F0.154
sg9
(lp1332
(lp1333
I8
ag33
aa(lp1334
I12
ag12
aasg14
I6
sg15
I1
sg16
(lp1335
(lp1336
I9
ag33
aa(lp1337
I11
ag33
aa(lp1338
I13
ag12
aa(lp1339
I11
ag47
aasbaF0.025999999999999999
aa(lp1340
(imodeler.Context
Context
p1341
(dp1342
g4
g21
sg6
I3
sg7
I1
sg8
F1.0
sg9
(lp1343
(lp1344
I12
ag47
aa(lp1345
I8
ag33
aasg14
I6
sg15
I0
sg16
(lp1346
sbaF0.047
aa(lp1347
(imodeler.Context
Context
p1348
(dp1349
g4
g21
sg6
I3
sg7
I1
sg8
F0.086999999999999994
sg9
g1343
sg14
I6
sg15
I1
sg16
(lp1350
sbaF0.041000000000000002
aa(lp1351
(imodeler.Context
Context
p1352
(dp1353
g4
g21
sg6
I3
sg7
I4
sg8
F0.040000000000000001
sg9
g1343
sg14
I6
sg15
I1
sg16
(lp1354
(lp1355
I4
ag25
aa(lp1356
I8
ag47
aa(lp1357
I5
ag47
aa(lp1358
I3
ag33
aa(lp1359
I10
ag33
aasbaF0.063
aa(lp1360
(imodeler.Context
Context
p1361
(dp1362
g4
g5
sg6
I4
sg7
I2
sg8
F0.13300000000000001
sg9
(lp1363
(lp1364
I13
ag33
aa(lp1365
I2
ag25
aasg14
I6
sg15
I1
sg16
(lp1366
(lp1367
I13
ag25
aa(lp1368
I9
ag33
aa(lp1369
I7
ag12
aasbaF0.033000000000000002
aa(lp1370
(imodeler.Context
Context
p1371
(dp1372
g4
g5
sg6
I1
sg7
I2
sg8
F0.105
sg9
(lp1373
(lp1374
I4
ag12
aa(lp1375
I9
ag47
aasg14
I6
sg15
I2
sg16
(lp1376
g1367
ag1368
ag1369
asbaF0.024
aa(lp1377
(imodeler.Context
Context
p1378
(dp1379
g4
g5
sg6
I4
sg7
I2
sg8
F0.086999999999999994
sg9
g1363
sg14
I6
sg15
I3
sg16
(lp1380
g1367
ag1368
ag1369
asbaF0.037999999999999999
aa(lp1381
(imodeler.Context
Context
p1382
(dp1383
g4
g5
sg6
I4
sg7
I2
sg8
F0.065000000000000002
sg9
g1363
sg14
I6
sg15
I5
sg16
(lp1384
g1367
ag1368
ag1369
asbaF0.031
aa(lp1385
(imodeler.Context
Context
p1386
(dp1387
g4
g5
sg6
I4
sg7
I2
sg8
F0.050999999999999997
sg9
g1363
sg14
I6
sg15
I7
sg16
(lp1388
g1367
ag1368
ag1369
asbaF0.045999999999999999
aa(lp1389
(imodeler.Context
Context
p1390
(dp1391
g4
g21
sg6
I4
sg7
I3
sg8
F0.095000000000000001
sg9
(lp1392
(lp1393
I13
ag25
aa(lp1394
I6
ag33
aasg14
I6
sg15
I3
sg16
(lp1395
(lp1396
I9
ag12
aa(lp1397
I7
ag47
aa(lp1398
I12
ag25
aa(lp1399
I11
ag25
aasbaF0.025999999999999999
aa(lp1400
(imodeler.Context
Context
p1401
(dp1402
g4
g21
sg6
I0
sg7
I1
sg8
F0.38500000000000001
sg9
(lp1403
(lp1404
I13
ag12
aa(lp1405
I8
ag47
aasg14
I6
sg15
I1
sg16
(lp1406
sbaF0.017000000000000001
aa(lp1407
(imodeler.Context
Context
p1408
(dp1409
g4
g21
sg6
I1
sg7
I1
sg8
F0.188
sg9
(lp1410
(lp1411
I11
ag33
aa(lp1412
I7
ag25
aasg14
I6
sg15
I1
sg16
(lp1413
sbaF0.012999999999999999
aa(lp1414
(imodeler.Context
Context
p1415
(dp1416
g4
g21
sg6
I4
sg7
I4
sg8
F0.076999999999999999
sg9
(lp1417
(lp1418
I5
ag33
aa(lp1419
I11
ag47
aasg14
I6
sg15
I1
sg16
(lp1420
(lp1421
I13
ag25
aa(lp1422
I3
ag47
aa(lp1423
I6
ag33
aa(lp1424
I9
ag33
aa(lp1425
I7
ag33
aasbaF0.029999999999999999
aa(lp1426
(imodeler.Context
Context
p1427
(dp1428
g4
g21
sg6
I1
sg7
I4
sg8
F0.095000000000000001
sg9
(lp1429
(lp1430
I5
ag12
aa(lp1431
I14
ag25
aasg14
I6
sg15
I1
sg16
(lp1432
(lp1433
I10
ag33
aa(lp1434
I6
ag12
aa(lp1435
I9
ag33
aa(lp1436
I4
ag47
aa(lp1437
I12
ag25
aasbaF0.017000000000000001
aa(lp1438
(imodeler.Context
Context
p1439
(dp1440
g4
g21
sg6
I1
sg7
I1
sg8
F0.14299999999999999
sg9
(lp1441
(lp1442
I6
ag12
aa(lp1443
I9
ag33
aasg14
I6
sg15
I0
sg16
(lp1444
sbaF0.016
aa(lp1445
(imodeler.Context
Context
p1446
(dp1447
g4
g5
sg6
I1
sg7
I2
sg8
F0.125
sg9
g1441
sg14
I6
sg15
I1
sg16
(lp1448
(lp1449
I14
ag25
aa(lp1450
I6
ag25
aa(lp1451
I5
ag33
aasbaF0.021999999999999999
aa(lp1452
(imodeler.Context
Context
p1453
(dp1454
g4
g5
sg6
I2
sg7
I1
sg8
F0.33300000000000002
sg9
(lp1455
(lp1456
I12
ag25
aa(lp1457
I12
ag47
aasg14
I6
sg15
I1
sg16
(lp1458
sbaF0.32000000000000001
aa(lp1459
(imodeler.Context
Context
p1460
(dp1461
g4
g5
sg6
I0
sg7
I1
sg8
F0.105
sg9
(lp1462
(lp1463
I14
ag47
aa(lp1464
I10
ag25
aasg14
I6
sg15
I2
sg16
(lp1465
sbaF0.067000000000000004
aa(lp1466
(imodeler.Context
Context
p1467
(dp1468
g4
g21
sg6
I1
sg7
I1
sg8
F0.16
sg9
(lp1469
(lp1470
I11
ag25
aa(lp1471
I12
ag33
aasg14
I6
sg15
I3
sg16
(lp1472
sbaF0.014999999999999999
aa(lp1473
(imodeler.Context
Context
p1474
(dp1475
g4
g5
sg6
I2
sg7
I1
sg8
F0.073999999999999996
sg9
g1455
sg14
I6
sg15
I3
sg16
(lp1476
sbaF0.19
aa(lp1477
(imodeler.Context
Context
p1478
(dp1479
g4
g5
sg6
I0
sg7
I1
sg8
F0.065000000000000002
sg9
g1462
sg14
I6
sg15
I4
sg16
(lp1480
sbaF0.067000000000000004
aa(lp1481
(imodeler.Context
Context
p1482
(dp1483
g4
g21
sg6
I1
sg7
I1
sg8
F0.108
sg9
g1469
sg14
I6
sg15
I5
sg16
(lp1484
sbaF0.014999999999999999
aa(lp1485
(imodeler.Context
Context
p1486
(dp1487
g4
g5
sg6
I2
sg7
I1
sg8
F0.050999999999999997
sg9
g1455
sg14
I6
sg15
I5
sg16
(lp1488
sbaF0.20799999999999999
aa(lp1489
(imodeler.Context
Context
p1490
(dp1491
g4
g5
sg6
I0
sg7
I1
sg8
F0.047
sg9
g1462
sg14
I6
sg15
I6
sg16
(lp1492
sbaF0.064000000000000001
aa(lp1493
(imodeler.Context
Context
p1494
(dp1495
g4
g21
sg6
I1
sg7
I1
sg8
F0.082000000000000003
sg9
g1469
sg14
I6
sg15
I7
sg16
(lp1496
sbaF0.014999999999999999
aa(lp1497
(imodeler.Context
Context
p1498
(dp1499
g4
g5
sg6
I2
sg7
I1
sg8
F0.039
sg9
g1455
sg14
I6
sg15
I7
sg16
(lp1500
sbaF0.249
aa(lp1501
(imodeler.Context
Context
p1502
(dp1503
g4
g21
sg6
I0
sg7
I1
sg8
F0.035999999999999997
sg9
g1462
sg14
I6
sg15
I8
sg16
(lp1504
sbaF0.021000000000000001
aa(lp1505
(imodeler.Context
Context
p1506
(dp1507
g4
g21
sg6
I1
sg7
I1
sg8
F0.035000000000000003
sg9
g1469
sg14
I6
sg15
I8
sg16
(lp1508
sbaF0.105
aa(lp1509
(imodeler.Context
Context
p1510
(dp1511
g4
g5
sg6
I2
sg7
I2
sg8
F0.0
sg9
g1455
sg14
I6
sg15
I0
sg16
(lp1512
(lp1513
I8
ag12
aa(lp1514
I13
ag33
aa(lp1515
I4
ag12
aasbaF0.074999999999999997
aa(lp1516
(imodeler.Context
Context
p1517
(dp1518
g4
g21
sg6
I2
sg7
I3
sg8
F0.0
sg9
g1455
sg14
I6
sg15
I0
sg16
(lp1519
g1513
ag1514
ag1515
a(lp1520
I7
ag33
aasbaF0.041000000000000002
aa(lp1521
(imodeler.Context
Context
p1522
(dp1523
g4
g21
sg6
I2
sg7
I4
sg8
F0.0
sg9
g1455
sg14
I6
sg15
I0
sg16
(lp1524
g1513
ag1514
ag1515
ag1520
a(lp1525
I3
ag47
aasbaF0.060999999999999999
aa(lp1526
(imodeler.Context
Context
p1527
(dp1528
g4
g5
sg6
I2
sg7
I1
sg8
F0.10000000000000001
sg9
(lp1529
(lp1530
I14
ag25
aa(lp1531
I14
ag33
aasg14
I6
sg15
I0
sg16
(lp1532
sbaF0.39400000000000002
aa(lp1533
(imodeler.Context
Context
p1534
(dp1535
g4
g21
sg6
I3
sg7
I1
sg8
F0.14299999999999999
sg9
(lp1536
(lp1537
I3
ag33
aa(lp1538
I13
ag33
aasg14
I6
sg15
I1
sg16
(lp1539
sbaF0.032000000000000001
aa(lp1540
(imodeler.Context
Context
p1541
(dp1542
g4
g5
sg6
I3
sg7
I2
sg8
F0.069000000000000006
sg9
g1536
sg14
I6
sg15
I1
sg16
(lp1543
(lp1544
I5
ag33
aa(lp1545
I13
ag47
aa(lp1546
I9
ag33
aasbaF0.048000000000000001
aa(lp1547
(imodeler.Context
Context
p1548
(dp1549
g4
g5
sg6
I2
sg7
I2
sg8
F0.048000000000000001
sg9
g1529
sg14
I6
sg15
I6
sg16
(lp1550
g1544
ag1545
ag1546
asbaF0.082000000000000003
aa(lp1551
(imodeler.Context
Context
p1552
(dp1553
g4
g5
sg6
I3
sg7
I2
sg8
F0.044999999999999998
sg9
g1536
sg14
I6
sg15
I7
sg16
(lp1554
g1544
ag1545
ag1546
asbaF0.047
aa(lp1555
(imodeler.Context
Context
p1556
(dp1557
g4
g5
sg6
I4
sg7
I2
sg8
F0.042000000000000003
sg9
(lp1558
(lp1559
I12
ag47
aa(lp1560
I9
ag12
aasg14
I6
sg15
I8
sg16
(lp1561
g1544
ag1545
ag1546
asbaF0.14399999999999999
aa(lp1562
(imodeler.Context
Context
p1563
(dp1564
g4
g21
sg6
I1
sg7
I2
sg8
F0.055
sg9
(lp1565
(lp1566
I4
ag12
aa(lp1567
I11
ag12
aasg14
I6
sg15
I9
sg16
(lp1568
g1544
ag1545
ag1546
asbaF0.052999999999999999
aa(lp1569
(imodeler.Context
Context
p1570
(dp1571
g4
g5
sg6
I2
sg7
I2
sg8
F0.035000000000000003
sg9
g1529
sg14
I6
sg15
I9
sg16
(lp1572
g1544
ag1545
ag1546
asbaF0.13600000000000001
aa(lp1573
(imodeler.Context
Context
p1574
(dp1575
g4
g5
sg6
I3
sg7
I2
sg8
F0.034000000000000002
sg9
g1536
sg14
I6
sg15
I10
sg16
(lp1576
g1544
ag1545
ag1546
asbaF0.050000000000000003
aa(lp1577
(imodeler.Context
Context
p1578
(dp1579
g4
g5
sg6
I4
sg7
I2
sg8
F0.032000000000000001
sg9
g1558
sg14
I6
sg15
I11
sg16
(lp1580
g1544
ag1545
ag1546
asbaF0.099000000000000005
aa(lp1581
(imodeler.Context
Context
p1582
(dp1583
g4
g21
sg6
I1
sg7
I2
sg8
F0.042999999999999997
sg9
g1565
sg14
I6
sg15
I12
sg16
(lp1584
g1544
ag1545
ag1546
asbaF0.23400000000000001
aa(lp1585
(imodeler.Context
Context
p1586
(dp1587
g4
g21
sg6
I2
sg7
I2
sg8
F0.028000000000000001
sg9
g1529
sg14
I6
sg15
I12
sg16
(lp1588
g1544
ag1545
ag1546
asbaF0.184
aa(lp1589
(imodeler.Context
Context
p1590
(dp1591
g4
g21
sg6
I3
sg7
I2
sg8
F0.014
sg9
g1536
sg14
I6
sg15
I12
sg16
(lp1592
g1544
ag1545
ag1546
asbaF0.222
aa(lp1593
(imodeler.Context
Context
p1594
(dp1595
g4
g5
sg6
I2
sg7
I3
sg8
F0.012999999999999999
sg9
g1529
sg14
I6
sg15
I1
sg16
(lp1596
g1544
ag1545
ag1546
a(lp1597
I2
ag33
aasbaF0.082000000000000003
aa(lp1598
(imodeler.Context
Context
p1599
(dp1600
g4
g21
sg6
I1
sg7
I3
sg8
F0.029000000000000001
sg9
g1565
sg14
I6
sg15
I7
sg16
(lp1601
g1544
ag1545
ag1546
ag1597
asbaF0.024
aa(lp1602
(imodeler.Context
Context
p1603
(dp1604
g4
g5
sg6
I2
sg7
I3
sg8
F0.019
sg9
g1529
sg14
I6
sg15
I7
sg16
(lp1605
g1544
ag1545
ag1546
ag1597
asbaF0.082000000000000003
aa(lp1606
(imodeler.Context
Context
p1607
(dp1608
g4
g5
sg6
I4
sg7
I3
sg8
F0.017999999999999999
sg9
g1558
sg14
I6
sg15
I9
sg16
(lp1609
g1544
ag1545
ag1546
ag1597
asbaF0.13900000000000001
aa(lp1610
(imodeler.Context
Context
p1611
(dp1612
g4
g21
sg6
I1
sg7
I3
sg8
F0.025000000000000001
sg9
g1565
sg14
I6
sg15
I10
sg16
(lp1613
g1544
ag1545
ag1546
ag1597
asbaF0.052999999999999999
aa(lp1614
(imodeler.Context
Context
p1615
(dp1616
g4
g5
sg6
I2
sg7
I3
sg8
F0.016
sg9
g1529
sg14
I6
sg15
I10
sg16
(lp1617
g1544
ag1545
ag1546
ag1597
asbaF0.13300000000000001
aa(lp1618
(imodeler.Context
Context
p1619
(dp1620
g4
g21
sg6
I2
sg7
I3
sg8
F0.0080000000000000002
sg9
g1529
sg14
I6
sg15
I12
sg16
(lp1621
g1544
ag1545
ag1546
ag1597
asbaF0.10199999999999999
aa(lp1622
(imodeler.Context
Context
p1623
(dp1624
g4
g21
sg6
I1
sg7
I4
sg8
F0.014999999999999999
sg9
g1565
sg14
I6
sg15
I2
sg16
(lp1625
g1544
ag1545
ag1546
ag1597
a(lp1626
I12
ag25
aasbaF0.090999999999999998
aa(lp1627
(imodeler.Context
Context
p1628
(dp1629
g4
g5
sg6
I2
sg7
I4
sg8
F0.014
sg9
g1529
sg14
I6
sg15
I2
sg16
(lp1630
g1544
ag1545
ag1546
ag1597
ag1626
asbaF0.068000000000000005
aa(lp1631
(imodeler.Context
Context
p1632
(dp1633
g4
g5
sg6
I2
sg7
I4
sg8
F0.012
sg9
g1529
sg14
I6
sg15
I8
sg16
(lp1634
g1544
ag1545
ag1546
ag1597
ag1626
asbaF0.123
aa(lp1635
(imodeler.Context
Context
p1636
(dp1637
g4
g5
sg6
I4
sg7
I4
sg8
F0.012
sg9
g1558
sg14
I6
sg15
I10
sg16
(lp1638
g1544
ag1545
ag1546
ag1597
ag1626
asbaF0.050999999999999997
aa(lp1639
(imodeler.Context
Context
p1640
(dp1641
g4
g21
sg6
I1
sg7
I4
sg8
F0.017000000000000001
sg9
g1565
sg14
I6
sg15
I11
sg16
(lp1642
g1544
ag1545
ag1546
ag1597
ag1626
asbaF0.021999999999999999
aa(lp1643
(imodeler.Context
Context
p1644
(dp1645
g4
g5
sg6
I2
sg7
I4
sg8
F0.010999999999999999
sg9
g1529
sg14
I6
sg15
I11
sg16
(lp1646
g1544
ag1545
ag1546
ag1597
ag1626
asbaF0.092999999999999999
aa(lp1647
(imodeler.Context
Context
p1648
(dp1649
g4
g21
sg6
I0
sg7
I2
sg8
F0.13300000000000001
sg9
(lp1650
(lp1651
I7
ag12
aa(lp1652
I8
ag47
aasg14
I6
sg15
I1
sg16
(lp1653
(lp1654
I11
ag47
aa(lp1655
I12
ag12
aa(lp1656
I8
ag12
aasbaF0.019
aa(lp1657
(imodeler.Context
Context
p1658
(dp1659
g4
g5
sg6
I3
sg7
I1
sg8
F0.5
sg9
(lp1660
(lp1661
I9
ag25
aa(lp1662
I9
ag33
aasg14
I6
sg15
I0
sg16
(lp1663
sbaF0.27900000000000003
aa(lp1664
(imodeler.Context
Context
p1665
(dp1666
g4
g21
sg6
I4
sg7
I1
sg8
F0.38500000000000001
sg9
(lp1667
(lp1668
I5
ag25
aa(lp1669
I10
ag25
aasg14
I6
sg15
I1
sg16
(lp1670
sbaF0.027
aa(lp1671
(imodeler.Context
Context
p1672
(dp1673
g4
g5
sg6
I0
sg7
I2
sg8
F0.070999999999999994
sg9
(lp1674
(lp1675
I13
ag12
aa(lp1676
I2
ag12
aasg14
I6
sg15
I1
sg16
(lp1677
(lp1678
I8
ag12
aa(lp1679
I9
ag12
aa(lp1680
I4
ag12
aasbaF0.014
aa(lp1681
(imodeler.Context
Context
p1682
(dp1683
g4
g5
sg6
I3
sg7
I2
sg8
F0.10000000000000001
sg9
g1660
sg14
I6
sg15
I3
sg16
(lp1684
g1678
ag1679
ag1680
asbaF0.094
aa(lp1685
(imodeler.Context
Context
p1686
(dp1687
g4
g21
sg6
I4
sg7
I2
sg8
F0.083000000000000004
sg9
g1667
sg14
I6
sg15
I7
sg16
(lp1688
g1678
ag1679
ag1680
asbaF0.021999999999999999
aa(lp1689
(imodeler.Context
Context
p1690
(dp1691
g4
g5
sg6
I3
sg7
I2
sg8
F0.044999999999999998
sg9
g1660
sg14
I6
sg15
I9
sg16
(lp1692
g1678
ag1679
ag1680
asbaF0.19400000000000001
aa(lp1693
(imodeler.Context
Context
p1694
(dp1695
g4
g21
sg6
I4
sg7
I2
sg8
F0.063
sg9
g1667
sg14
I6
sg15
I10
sg16
(lp1696
g1678
ag1679
ag1680
asbaF0.029999999999999999
aa(lp1697
(imodeler.Context
Context
p1698
(dp1699
g4
g21
sg6
I0
sg7
I1
sg8
F0.14299999999999999
sg9
(lp1700
(lp1701
I11
ag47
aa(lp1702
I9
ag12
aasg14
I6
sg15
I0
sg16
(lp1703
sbaF0.021999999999999999
aa(lp1704
(imodeler.Context
Context
p1705
(dp1706
g4
g5
sg6
I0
sg7
I2
sg8
F0.070999999999999994
sg9
g1700
sg14
I6
sg15
I3
sg16
(lp1707
(lp1708
I9
ag33
aa(lp1709
I13
ag33
aa(lp1710
I3
ag25
aasbaF0.037999999999999999
aa(lp1711
(imodeler.Context
Context
p1712
(dp1713
g4
g5
sg6
I0
sg7
I2
sg8
F0.050000000000000003
sg9
g1700
sg14
I6
sg15
I5
sg16
(lp1714
g1708
ag1709
ag1710
asbaF0.014
aa(lp1715
(imodeler.Context
Context
p1716
(dp1717
g4
g21
sg6
I1
sg7
I3
sg8
F0.052999999999999999
sg9
(lp1718
(lp1719
I8
ag25
aa(lp1720
I5
ag47
aasg14
I6
sg15
I3
sg16
(lp1721
g1708
ag1709
ag1710
a(lp1722
I4
ag33
aasbaF0.017000000000000001
aa(lp1723
(imodeler.Context
Context
p1724
(dp1725
g4
g21
sg6
I1
sg7
I3
sg8
F0.044999999999999998
sg9
g1718
sg14
I6
sg15
I5
sg16
(lp1726
g1708
ag1709
ag1710
ag1722
asbaF0.023
aa(lp1727
(imodeler.Context
Context
p1728
(dp1729
g4
g21
sg6
I2
sg7
I1
sg8
F1.0
sg9
(lp1730
(lp1731
I13
ag33
aa(lp1732
I9
ag33
aasg14
I6
sg15
I0
sg16
(lp1733
sbaF0.035000000000000003
aa(lp1734
(imodeler.Context
Context
p1735
(dp1736
g4
g5
sg6
I0
sg7
I1
sg8
F0.14299999999999999
sg9
(lp1737
(lp1738
I13
ag12
aa(lp1739
I12
ag25
aasg14
I6
sg15
I0
sg16
(lp1740
sbaF0.216
aa(lp1741
(imodeler.Context
Context
p1742
(dp1743
g4
g21
sg6
I2
sg7
I1
sg8
F0.154
sg9
g1730
sg14
I6
sg15
I1
sg16
(lp1744
sbaF0.031
aa(lp1745
(imodeler.Context
Context
p1746
(dp1747
g4
g5
sg6
I2
sg7
I2
sg8
F0.13300000000000001
sg9
g1730
sg14
I6
sg15
I2
sg16
(lp1748
(lp1749
I6
ag33
aa(lp1750
I13
ag47
aa(lp1751
I11
ag33
aasbaF0.059999999999999998
aa(lp1752
(imodeler.Context
Context
p1753
(dp1754
g4
g5
sg6
I2
sg7
I2
sg8
F0.050999999999999997
sg9
g1730
sg14
I6
sg15
I8
sg16
(lp1755
g1749
ag1750
ag1751
asbaF0.055
aa(lp1756
(imodeler.Context
Context
p1757
(dp1758
g4
g5
sg6
I0
sg7
I2
sg8
F0.043999999999999997
sg9
g1737
sg14
I6
sg15
I9
sg16
(lp1759
g1749
ag1750
ag1751
asbaF0.064000000000000001
aa(lp1760
(imodeler.Context
Context
p1761
(dp1762
g4
g5
sg6
I1
sg7
I2
sg8
F0.042000000000000003
sg9
(lp1763
(lp1764
I8
ag25
aa(lp1765
I6
ag12
aasg14
I6
sg15
I10
sg16
(lp1766
g1749
ag1750
ag1751
asbaF0.034000000000000002
aa(lp1767
(imodeler.Context
Context
p1768
(dp1769
g4
g5
sg6
I2
sg7
I2
sg8
F0.039
sg9
g1730
sg14
I6
sg15
I11
sg16
(lp1770
g1749
ag1750
ag1751
asbaF0.040000000000000001
aa(lp1771
(imodeler.Context
Context
p1772
(dp1773
g4
g21
sg6
I4
sg7
I1
sg8
F0.14299999999999999
sg9
(lp1774
(lp1775
I7
ag25
aa(lp1776
I10
ag47
aasg14
I6
sg15
I0
sg16
(lp1777
sbaF0.037999999999999999
aa(lp1778
(imodeler.Context
Context
p1779
(dp1780
g4
g21
sg6
I1
sg7
I1
sg8
F0.25
sg9
(lp1781
(lp1782
I3
ag47
aa(lp1783
I14
ag12
aasg14
I6
sg15
I0
sg16
(lp1784
sbaF0.019
aa(lp1785
(imodeler.Context
Context
p1786
(dp1787
g4
g21
sg6
I2
sg7
I1
sg8
F0.076999999999999999
sg9
(lp1788
(lp1789
I2
ag25
aa(lp1790
I14
ag33
aasg14
I6
sg15
I0
sg16
(lp1791
sbaF0.040000000000000001
aa(lp1792
(imodeler.Context
Context
p1793
(dp1794
g4
g5
sg6
I0
sg7
I1
sg8
F0.5
sg9
(lp1795
(lp1796
I8
ag47
aa(lp1797
I8
ag33
aasg14
I6
sg15
I0
sg16
(lp1798
sbaF0.183
aa(lp1799
(imodeler.Context
Context
p1800
(dp1801
g4
g21
sg6
I2
sg7
I1
sg8
F0.5
sg9
(lp1802
(lp1803
I8
ag12
aa(lp1804
I10
ag33
aasg14
I6
sg15
I0
sg16
(lp1805
sbaF0.064000000000000001
aa(lp1806
(imodeler.Context
Context
p1807
(dp1808
g4
g5
sg6
I2
sg7
I4
sg8
F0.0
sg9
g1802
sg14
I6
sg15
I0
sg16
(lp1809
(lp1810
I3
ag47
aa(lp1811
I3
ag25
aa(lp1812
I10
ag25
aa(lp1813
I7
ag25
aa(lp1814
I2
ag25
aasbaF0.042999999999999997
aa(lp1815
(imodeler.Context
Context
p1816
(dp1817
g4
g21
sg6
I1
sg7
I1
sg8
F0.38500000000000001
sg9
(lp1818
(lp1819
I6
ag33
aa(lp1820
I12
ag25
aasg14
I6
sg15
I1
sg16
(lp1821
sbaF0.017000000000000001
aa(lp1822
(imodeler.Context
Context
p1823
(dp1824
g4
g5
sg6
I2
sg7
I1
sg8
F0.188
sg9
(lp1825
(lp1826
I11
ag12
aa(lp1827
I11
ag33
aasg14
I6
sg15
I1
sg16
(lp1828
sbaF0.27000000000000002
aa(lp1829
(imodeler.Context
Context
p1830
(dp1831
g4
g21
sg6
I4
sg7
I1
sg8
F0.182
sg9
(lp1832
(lp1833
I5
ag47
aa(lp1834
I10
ag33
aasg14
I6
sg15
I2
sg16
(lp1835
sbaF0.014999999999999999
aa(lp1836
(imodeler.Context
Context
p1837
(dp1838
g4
g21
sg6
I4
sg7
I1
sg8
F0.105
sg9
g1832
sg14
I6
sg15
I4
sg16
(lp1839
sbaF0.021999999999999999
aa(lp1840
(imodeler.Context
Context
p1841
(dp1842
g4
g21
sg6
I4
sg7
I1
sg8
F0.073999999999999996
sg9
g1832
sg14
I6
sg15
I6
sg16
(lp1843
sbaF0.023
aa(lp1844
(imodeler.Context
Context
p1845
(dp1846
g4
g21
sg6
I4
sg7
I1
sg8
F0.057000000000000002
sg9
g1832
sg14
I6
sg15
I8
sg16
(lp1847
sbaF0.050999999999999997
aa(lp1848
(imodeler.Context
Context
p1849
(dp1850
g4
g21
sg6
I1
sg7
I2
sg8
F0.043999999999999997
sg9
g1818
sg14
I6
sg15
I2
sg16
(lp1851
(lp1852
I4
ag47
aa(lp1853
I9
ag25
aa(lp1854
I13
ag12
aasbaF0.045999999999999999
aa(lp1855
(imodeler.Context
Context
p1856
(dp1857
g4
g5
sg6
I2
sg7
I2
sg8
F0.021999999999999999
sg9
g1825
sg14
I6
sg15
I2
sg16
(lp1858
g1852
ag1853
ag1854
asbaF0.049000000000000002
aa(lp1859
(imodeler.Context
Context
p1860
(dp1861
g4
g21
sg6
I4
sg7
I2
sg8
F0.040000000000000001
sg9
g1832
sg14
I6
sg15
I3
sg16
(lp1862
g1852
ag1853
ag1854
asbaF0.058000000000000003
aa(lp1863
(imodeler.Context
Context
p1864
(dp1865
g4
g5
sg6
I0
sg7
I2
sg8
F0.02
sg9
(lp1866
(lp1867
I9
ag33
aa(lp1868
I9
ag47
aasg14
I6
sg15
I3
sg16
(lp1869
g1852
ag1853
ag1854
asbaF0.085000000000000006
aa(lp1870
(imodeler.Context
Context
p1871
(dp1872
g4
g21
sg6
I1
sg7
I2
sg8
F0.036999999999999998
sg9
g1818
sg14
I6
sg15
I4
sg16
(lp1873
g1852
ag1853
ag1854
asbaF0.048000000000000001
aa(lp1874
(imodeler.Context
Context
p1875
(dp1876
g4
g5
sg6
I2
sg7
I2
sg8
F0.017999999999999999
sg9
g1825
sg14
I6
sg15
I4
sg16
(lp1877
g1852
ag1853
ag1854
asbaF0.075999999999999998
aa(lp1878
(imodeler.Context
Context
p1879
(dp1880
g4
g21
sg6
I4
sg7
I2
sg8
F0.035000000000000003
sg9
g1832
sg14
I6
sg15
I5
sg16
(lp1881
g1852
ag1853
ag1854
asbaF0.028000000000000001
aa(lp1882
(imodeler.Context
Context
p1883
(dp1884
g4
g21
sg6
I4
sg7
I2
sg8
F0.031
sg9
g1832
sg14
I6
sg15
I7
sg16
(lp1885
g1852
ag1853
ag1854
asbaF0.048000000000000001
aa(lp1886
(imodeler.Context
Context
p1887
(dp1888
g4
g5
sg6
I0
sg7
I2
sg8
F0.014999999999999999
sg9
g1866
sg14
I6
sg15
I7
sg16
(lp1889
g1852
ag1853
ag1854
asbaF0.031
aa(lp1890
(imodeler.Context
Context
p1891
(dp1892
g4
g21
sg6
I2
sg7
I2
sg8
F0.014
sg9
g1825
sg14
I6
sg15
I8
sg16
(lp1893
g1852
ag1853
ag1854
asbaF0.047
aa(lp1894
(imodeler.Context
Context
p1895
(dp1896
g4
g21
sg6
I2
sg7
I3
sg8
F0.025999999999999999
sg9
g1825
sg14
I6
sg15
I2
sg16
(lp1897
g1852
ag1853
ag1854
a(lp1898
I12
ag47
aasbaF0.035000000000000003
aa(lp1899
(imodeler.Context
Context
p1900
(dp1901
g4
g21
sg6
I4
sg7
I3
sg8
F0.025000000000000001
sg9
g1832
sg14
I6
sg15
I2
sg16
(lp1902
g1852
ag1853
ag1854
ag1898
asbaF0.012
aa(lp1903
(imodeler.Context
Context
p1904
(dp1905
g4
g5
sg6
I0
sg7
I3
sg8
F0.012999999999999999
sg9
g1866
sg14
I6
sg15
I2
sg16
(lp1906
g1852
ag1853
ag1854
ag1898
asbaF0.031
aa(lp1907
(imodeler.Context
Context
p1908
(dp1909
g4
g5
sg6
I1
sg7
I3
sg8
F0.012
sg9
g1818
sg14
I6
sg15
I3
sg16
(lp1910
g1852
ag1853
ag1854
ag1898
asbaF0.031
aa(lp1911
(imodeler.Context
Context
p1912
(dp1913
g4
g21
sg6
I2
sg7
I3
sg8
F0.024
sg9
g1825
sg14
I6
sg15
I4
sg16
(lp1914
g1852
ag1853
ag1854
ag1898
asbaF0.035000000000000003
aa(lp1915
(imodeler.Context
Context
p1916
(dp1917
g4
g21
sg6
I2
sg7
I3
sg8
F0.021999999999999999
sg9
g1825
sg14
I6
sg15
I6
sg16
(lp1918
g1852
ag1853
ag1854
ag1898
asbaF0.035000000000000003
aa(lp1919
(imodeler.Context
Context
p1920
(dp1921
g4
g21
sg6
I2
sg7
I4
sg8
F0.0089999999999999993
sg9
g1825
sg14
I6
sg15
I1
sg16
(lp1922
g1852
ag1853
ag1854
ag1898
a(lp1923
I13
ag47
aasbaF0.058000000000000003
aa(lp1924
(imodeler.Context
Context
p1925
(dp1926
g4
g21
sg6
I2
sg7
I4
sg8
F0.017999999999999999
sg9
g1825
sg14
I6
sg15
I3
sg16
(lp1927
g1852
ag1853
ag1854
ag1898
ag1923
asbaF0.058999999999999997
aa(lp1928
(imodeler.Context
Context
p1929
(dp1930
g4
g21
sg6
I4
sg7
I4
sg8
F0.017000000000000001
sg9
g1832
sg14
I6
sg15
I3
sg16
(lp1931
g1852
ag1853
ag1854
ag1898
ag1923
asbaF0.041000000000000002
aa(lp1932
(imodeler.Context
Context
p1933
(dp1934
g4
g21
sg6
I2
sg7
I4
sg8
F0.017000000000000001
sg9
g1825
sg14
I6
sg15
I5
sg16
(lp1935
g1852
ag1853
ag1854
ag1898
ag1923
asbaF0.058999999999999997
aa(lp1936
(imodeler.Context
Context
p1937
(dp1938
g4
g21
sg6
I4
sg7
I4
sg8
F0.016
sg9
g1832
sg14
I6
sg15
I5
sg16
(lp1939
g1852
ag1853
ag1854
ag1898
ag1923
asbaF0.025999999999999999
aa(lp1940
(imodeler.Context
Context
p1941
(dp1942
g4
g21
sg6
I2
sg7
I4
sg8
F0.016
sg9
g1825
sg14
I6
sg15
I7
sg16
(lp1943
g1852
ag1853
ag1854
ag1898
ag1923
asbaF0.058000000000000003
aa(lp1944
(imodeler.Context
Context
p1945
(dp1946
g4
g21
sg6
I2
sg7
I4
sg8
F0.0070000000000000001
sg9
g1825
sg14
I6
sg15
I8
sg16
(lp1947
g1852
ag1853
ag1854
ag1898
ag1923
asbaF0.14499999999999999
aa(lp1948
(imodeler.Context
Context
p1949
(dp1950
g4
g21
sg6
I2
sg7
I1
sg8
F0.5
sg9
(lp1951
(lp1952
I14
ag12
aa(lp1953
I12
ag12
aasg14
I6
sg15
I1
sg16
(lp1954
sbaF0.035999999999999997
aa(lp1955
(imodeler.Context
Context
p1956
(dp1957
g4
g21
sg6
I3
sg7
I1
sg8
F0.23100000000000001
sg9
(lp1958
(lp1959
I12
ag25
aa(lp1960
I10
ag47
aasg14
I6
sg15
I1
sg16
(lp1961
sbaF0.058999999999999997
aa(lp1962
(imodeler.Context
Context
p1963
(dp1964
g4
g5
sg6
I4
sg7
I2
sg8
F0.13300000000000001
sg9
(lp1965
(lp1966
I9
ag25
aa(lp1967
I8
ag33
aasg14
I6
sg15
I2
sg16
(lp1968
(lp1969
I12
ag33
aa(lp1970
I3
ag12
aa(lp1971
I9
ag12
aasbaF0.028000000000000001
aa(lp1972
(imodeler.Context
Context
p1973
(dp1974
g4
g5
sg6
I2
sg7
I2
sg8
F0.095000000000000001
sg9
g1951
sg14
I6
sg15
I3
sg16
(lp1975
g1969
ag1970
ag1971
asbaF0.073999999999999996
aa(lp1976
(imodeler.Context
Context
p1977
(dp1978
g4
g5
sg6
I3
sg7
I3
sg8
F0.017000000000000001
sg9
g1958
sg14
I6
sg15
I1
sg16
(lp1979
g1969
ag1970
ag1971
a(lp1980
I11
ag25
aasbaF0.23899999999999999
aa(lp1981
(imodeler.Context
Context
p1982
(dp1983
g4
g5
sg6
I3
sg7
I3
sg8
F0.014999999999999999
sg9
g1958
sg14
I6
sg15
I3
sg16
(lp1984
g1969
ag1970
ag1971
ag1980
asbaF0.057000000000000002
aa(lp1985
(imodeler.Context
Context
p1986
(dp1987
g4
g5
sg6
I3
sg7
I3
sg8
F0.012
sg9
g1958
sg14
I6
sg15
I7
sg16
(lp1988
g1969
ag1970
ag1971
ag1980
asbaF0.121
aa(lp1989
(imodeler.Context
Context
p1990
(dp1991
g4
g5
sg6
I3
sg7
I4
sg8
F0.01
sg9
g1958
sg14
I6
sg15
I2
sg16
(lp1992
g1969
ag1970
ag1971
ag1980
a(lp1993
I3
ag33
aasbaF0.246
aa(lp1994
(imodeler.Context
Context
p1995
(dp1996
g4
g5
sg6
I3
sg7
I4
sg8
F0.01
sg9
g1958
sg14
I6
sg15
I4
sg16
(lp1997
g1969
ag1970
ag1971
ag1980
ag1993
asbaF0.20000000000000001
aa(lp1998
(imodeler.Context
Context
p1999
(dp2000
g4
g21
sg6
I3
sg7
I4
sg8
F0.0080000000000000002
sg9
g1958
sg14
I6
sg15
I8
sg16
(lp2001
g1969
ag1970
ag1971
ag1980
ag1993
asbaF0.219
aa(lp2002
(imodeler.Context
Context
p2003
(dp2004
g4
g21
sg6
I3
sg7
I1
sg8
F0.5
sg9
(lp2005
(lp2006
I14
ag33
aa(lp2007
I7
ag12
aasg14
I6
sg15
I0
sg16
(lp2008
sbaF0.053999999999999999
aa(lp2009
(imodeler.Context
Context
p2010
(dp2011
g4
g21
sg6
I3
sg7
I2
sg8
F0.125
sg9
g2005
sg14
I6
sg15
I1
sg16
(lp2012
(lp2013
I6
ag47
aa(lp2014
I12
ag33
aa(lp2015
I12
ag25
aasbaF0.082000000000000003
aa(lp2016
(imodeler.Context
Context
p2017
(dp2018
g4
g21
sg6
I3
sg7
I2
sg8
F0.13300000000000001
sg9
g2005
sg14
I6
sg15
I3
sg16
(lp2019
g2013
ag2014
ag2015
asbaF0.059999999999999998
aa(lp2020
(imodeler.Context
Context
p2021
(dp2022
g4
g21
sg6
I4
sg7
I2
sg8
F0.11799999999999999
sg9
(lp2023
(lp2024
I7
ag25
aa(lp2025
I10
ag33
aasg14
I6
sg15
I3
sg16
(lp2026
g2013
ag2014
ag2015
asbaF0.024
aa(lp2027
(imodeler.Context
Context
p2028
(dp2029
g4
g21
sg6
I3
sg7
I2
sg8
F0.086999999999999994
sg9
g2005
sg14
I6
sg15
I5
sg16
(lp2030
g2013
ag2014
ag2015
asbaF0.068000000000000005
aa(lp2031
(imodeler.Context
Context
p2032
(dp2033
g4
g21
sg6
I3
sg7
I2
sg8
F0.065000000000000002
sg9
g2005
sg14
I6
sg15
I7
sg16
(lp2034
g2013
ag2014
ag2015
asbaF0.079000000000000001
aa(lp2035
(imodeler.Context
Context
p2036
(dp2037
g4
g21
sg6
I4
sg7
I3
sg8
F0.042000000000000003
sg9
g2023
sg14
I6
sg15
I9
sg16
(lp2038
g2013
ag2014
ag2015
a(lp2039
I14
ag47
aasbaF0.02
aa(lp2040
(imodeler.Context
Context
p2041
(dp2042
g4
g5
sg6
I0
sg7
I3
sg8
F0.025999999999999999
sg9
(lp2043
(lp2044
I4
ag25
aa(lp2045
I12
ag12
aasg14
I6
sg15
I10
sg16
(lp2046
g2013
ag2014
ag2015
ag2039
asbaF0.106
aa(lp2047
(imodeler.Context
Context
p2048
(dp2049
g4
g5
sg6
I5
sg7
I1
sg8
F1.0
sg9
(lp2050
(lp2051
I14
ag12
aa(lp2052
I14
ag47
aasg14
I6
sg15
I0
sg16
(lp2053
sbaF0.191
aa(lp2054
(imodeler.Context
Context
p2055
(dp2056
g4
g21
sg6
I0
sg7
I1
sg8
F0.5
sg9
(lp2057
(lp2058
I14
ag25
aa(lp2059
I3
ag12
aasg14
I6
sg15
I1
sg16
(lp2060
sbaF0.019
aa(lp2061
(imodeler.Context
Context
p2062
(dp2063
g4
g21
sg6
I1
sg7
I1
sg8
F0.33300000000000002
sg9
(lp2064
(lp2065
I6
ag12
aa(lp2066
I11
ag47
aasg14
I6
sg15
I1
sg16
(lp2067
sbaF0.014
aa(lp2068
(imodeler.Context
Context
p2069
(dp2070
g4
g5
sg6
I3
sg7
I2
sg8
F0.037999999999999999
sg9
(lp2071
(lp2072
I10
ag25
aa(lp2073
I9
ag33
aasg14
I6
sg15
I3
sg16
(lp2074
(lp2075
I5
ag33
aa(lp2076
I10
ag47
aa(lp2077
I9
ag25
aasbaF0.090999999999999998
aa(lp2078
(imodeler.Context
Context
p2079
(dp2080
g4
g5
sg6
I3
sg7
I2
sg8
F0.029000000000000001
sg9
g2071
sg14
I6
sg15
I5
sg16
(lp2081
g2075
ag2076
ag2077
asbaF0.048000000000000001
aa(lp2082
(imodeler.Context
Context
p2083
(dp2084
g4
g5
sg6
I3
sg7
I3
sg8
F0.016
sg9
g2071
sg14
I6
sg15
I4
sg16
(lp2085
g2075
ag2076
ag2077
a(lp2086
I12
ag12
aasbaF0.17399999999999999
aa(lp2087
(imodeler.Context
Context
p2088
(dp2089
g4
g5
sg6
I3
sg7
I3
sg8
F0.014
sg9
g2071
sg14
I6
sg15
I6
sg16
(lp2090
g2075
ag2076
ag2077
ag2086
asbaF0.070999999999999994
aa(lp2091
(imodeler.Context
Context
p2092
(dp2093
g4
g21
sg6
I3
sg7
I3
sg8
F0.012999999999999999
sg9
g2071
sg14
I6
sg15
I8
sg16
(lp2094
g2075
ag2076
ag2077
ag2086
asbaF0.053999999999999999
aa(lp2095
(imodeler.Context
Context
p2096
(dp2097
g4
g21
sg6
I5
sg7
I4
sg8
F0.0
sg9
g2050
sg14
I6
sg15
I0
sg16
(lp2098
g2075
ag2076
ag2077
ag2086
a(lp2099
I8
ag33
aasbaF0.068000000000000005
aa(lp2100
(imodeler.Context
Context
p2101
(dp2102
g4
g21
sg6
I5
sg7
I4
sg8
F0.012
sg9
g2050
sg14
I6
sg15
I1
sg16
(lp2103
g2075
ag2076
ag2077
ag2086
ag2099
asbaF0.113
aa(lp2104
(imodeler.Context
Context
p2105
(dp2106
g4
g5
sg6
I3
sg7
I1
sg8
F0.33300000000000002
sg9
(lp2107
(lp2108
I10
ag33
aa(lp2109
I10
ag12
aasg14
I6
sg15
I0
sg16
(lp2110
sbaF0.26300000000000001
aa(lp2111
(imodeler.Context
Context
p2112
(dp2113
g4
g21
sg6
I2
sg7
I1
sg8
F0.086999999999999994
sg9
(lp2114
(lp2115
I14
ag47
aa(lp2116
I11
ag33
aasg14
I6
sg15
I1
sg16
(lp2117
sbaF0.025999999999999999
aa(lp2118
(imodeler.Context
Context
p2119
(dp2120
g4
g5
sg6
I2
sg7
I3
sg8
F0.028000000000000001
sg9
g2114
sg14
I6
sg15
I3
sg16
(lp2121
(lp2122
I11
ag12
aa(lp2123
I12
ag25
aa(lp2124
I11
ag25
aa(lp2125
I3
ag25
aasbaF0.047
aa(lp2126
(imodeler.Context
Context
p2127
(dp2128
g4
g5
sg6
I1
sg7
I3
sg8
F0.021999999999999999
sg9
(lp2129
(lp2130
I5
ag47
aa(lp2131
I12
ag47
aasg14
I6
sg15
I8
sg16
(lp2132
g2122
ag2123
ag2124
ag2125
asbaF0.097000000000000003
aa(lp2133
(imodeler.Context
Context
p2134
(dp2135
g4
g5
sg6
I2
sg7
I3
sg8
F0.021000000000000001
sg9
g2114
sg14
I6
sg15
I9
sg16
(lp2136
g2122
ag2123
ag2124
ag2125
asbaF0.063
aa(lp2137
(imodeler.Context
Context
p2138
(dp2139
g4
g5
sg6
I3
sg7
I3
sg8
F0.02
sg9
g2107
sg14
I6
sg15
I10
sg16
(lp2140
g2122
ag2123
ag2124
ag2125
asbaF0.121
aa(lp2141
(imodeler.Context
Context
p2142
(dp2143
g4
g21
sg6
I4
sg7
I3
sg8
F0.029000000000000001
sg9
(lp2144
(lp2145
I9
ag33
aa(lp2146
I4
ag25
aasg14
I6
sg15
I11
sg16
(lp2147
g2122
ag2123
ag2124
ag2125
asbaF0.014
aa(lp2148
(imodeler.Context
Context
p2149
(dp2150
g4
g5
sg6
I1
sg7
I3
sg8
F0.019
sg9
g2129
sg14
I6
sg15
I11
sg16
(lp2151
g2122
ag2123
ag2124
ag2125
asbaF0.037999999999999999
aa(lp2152
(imodeler.Context
Context
p2153
(dp2154
g4
g21
sg6
I3
sg7
I3
sg8
F0.0089999999999999993
sg9
g2107
sg14
I6
sg15
I12
sg16
(lp2155
g2122
ag2123
ag2124
ag2125
asbaF0.17199999999999999
aa(lp2156
(imodeler.Context
Context
p2157
(dp2158
g4
g5
sg6
I2
sg7
I4
sg8
F0.016
sg9
g2114
sg14
I6
sg15
I4
sg16
(lp2159
g2122
ag2123
ag2124
ag2125
a(lp2160
I9
ag47
aasbaF0.069000000000000006
aa(lp2161
(imodeler.Context
Context
p2162
(dp2163
g4
g5
sg6
I3
sg7
I4
sg8
F0.016
sg9
g2107
sg14
I6
sg15
I5
sg16
(lp2164
g2122
ag2123
ag2124
ag2125
ag2160
asbaF0.16700000000000001
aa(lp2165
(imodeler.Context
Context
p2166
(dp2167
g4
g5
sg6
I3
sg7
I4
sg8
F0.014
sg9
g2107
sg14
I6
sg15
I8
sg16
(lp2168
g2122
ag2123
ag2124
ag2125
ag2160
asbaF0.246
aa(lp2169
(imodeler.Context
Context
p2170
(dp2171
g4
g21
sg6
I4
sg7
I4
sg8
F0.021000000000000001
sg9
g2144
sg14
I6
sg15
I9
sg16
(lp2172
g2122
ag2123
ag2124
ag2125
ag2160
asbaF0.019
aa(lp2173
(imodeler.Context
Context
p2174
(dp2175
g4
g5
sg6
I2
sg7
I4
sg8
F0.014
sg9
g2114
sg14
I6
sg15
I10
sg16
(lp2176
g2122
ag2123
ag2124
ag2125
ag2160
asbaF0.055
aa(lp2177
(imodeler.Context
Context
p2178
(dp2179
g4
g5
sg6
I3
sg7
I4
sg8
F0.012999999999999999
sg9
g2107
sg14
I6
sg15
I11
sg16
(lp2180
g2122
ag2123
ag2124
ag2125
ag2160
asbaF0.23699999999999999
aa(lp2181
(imodeler.Context
Context
p2182
(dp2183
g4
g21
sg6
I2
sg7
I4
sg8
F0.0060000000000000001
sg9
g2114
sg14
I6
sg15
I12
sg16
(lp2184
g2122
ag2123
ag2124
ag2125
ag2160
asbaF0.036999999999999998
aa(lp2185
(imodeler.Context
Context
p2186
(dp2187
g4
g21
sg6
I5
sg7
I4
sg8
F0.063
sg9
(lp2188
(lp2189
I6
ag25
aa(lp2190
I14
ag12
aasg14
I6
sg15
I1
sg16
(lp2191
(lp2192
I9
ag47
aa(lp2193
I3
ag47
aa(lp2194
I6
ag12
aa(lp2195
I9
ag33
aa(lp2196
I10
ag33
aasbaF0.044999999999999998
aa(lp2197
(imodeler.Context
Context
p2198
(dp2199
g4
g21
sg6
I2
sg7
I1
sg8
F0.33300000000000002
sg9
(lp2200
(lp2201
I8
ag12
aa(lp2202
I10
ag33
aasg14
I6
sg15
I0
sg16
(lp2203
sbaF0.053999999999999999
aa(lp2204
(imodeler.Context
Context
p2205
(dp2206
g4
g21
sg6
I3
sg7
I1
sg8
F0.25
sg9
(lp2207
(lp2208
I14
ag12
aa(lp2209
I9
ag33
aasg14
I6
sg15
I0
sg16
(lp2210
sbaF0.032000000000000001
aa(lp2211
(imodeler.Context
Context
p2212
(dp2213
g4
g21
sg6
I4
sg7
I1
sg8
F0.076999999999999999
sg9
(lp2214
(lp2215
I8
ag47
aa(lp2216
I11
ag12
aasg14
I6
sg15
I0
sg16
(lp2217
sbaF0.02
aa(lp2218
(imodeler.Context
Context
p2219
(dp2220
g4
g5
sg6
I3
sg7
I2
sg8
F0.13300000000000001
sg9
g2207
sg14
I6
sg15
I2
sg16
(lp2221
(lp2222
I7
ag47
aa(lp2223
I11
ag47
aa(lp2224
I9
ag25
aasbaF0.040000000000000001
aa(lp2225
(imodeler.Context
Context
p2226
(dp2227
g4
g21
sg6
I1
sg7
I2
sg8
F0.14299999999999999
sg9
(lp2228
(lp2229
I12
ag47
aa(lp2230
I10
ag12
aasg14
I6
sg15
I5
sg16
(lp2231
g2222
ag2223
ag2224
asbaF0.040000000000000001
aa(lp2232
(imodeler.Context
Context
p2233
(dp2234
g4
g5
sg6
I2
sg7
I2
sg8
F0.097000000000000003
sg9
g2200
sg14
I6
sg15
I5
sg16
(lp2235
g2222
ag2223
ag2224
asbaF0.02
aa(lp2236
(imodeler.Context
Context
p2237
(dp2238
g4
g5
sg6
I3
sg7
I2
sg8
F0.085999999999999993
sg9
g2207
sg14
I6
sg15
I6
sg16
(lp2239
g2222
ag2223
ag2224
asbaF0.050000000000000003
aa(lp2240
(imodeler.Context
Context
p2241
(dp2242
g4
g5
sg6
I0
sg7
I2
sg8
F0.070000000000000007
sg9
(lp2243
(lp2244
I8
ag25
aa(lp2245
I11
ag25
aasg14
I6
sg15
I8
sg16
(lp2246
g2222
ag2223
ag2224
asbaF0.021000000000000001
aa(lp2247
(imodeler.Context
Context
p2248
(dp2249
g4
g5
sg6
I0
sg7
I2
sg8
F0.048000000000000001
sg9
g2243
sg14
I6
sg15
I12
sg16
(lp2250
g2222
ag2223
ag2224
asbaF0.028000000000000001
aa(lp2251
(imodeler.Context
Context
p2252
(dp2253
g4
g21
sg6
I1
sg7
I2
sg8
F0.058999999999999997
sg9
g2228
sg14
I6
sg15
I13
sg16
(lp2254
g2222
ag2223
ag2224
asbaF0.040000000000000001
aa(lp2255
(imodeler.Context
Context
p2256
(dp2257
g4
g5
sg6
I2
sg7
I2
sg8
F0.042000000000000003
sg9
g2200
sg14
I6
sg15
I13
sg16
(lp2258
g2222
ag2223
ag2224
asbaF0.02
aa(lp2259
(imodeler.Context
Context
p2260
(dp2261
g4
g5
sg6
I3
sg7
I2
sg8
F0.040000000000000001
sg9
g2207
sg14
I6
sg15
I14
sg16
(lp2262
g2222
ag2223
ag2224
asbaF0.050000000000000003
aa(lp2263
(imodeler.Context
Context
p2264
(dp2265
g4
g5
sg6
I4
sg7
I2
sg8
F0.037999999999999999
sg9
g2214
sg14
I6
sg15
I15
sg16
(lp2266
g2222
ag2223
ag2224
asbaF0.029999999999999999
aa(lp2267
(imodeler.Context
Context
p2268
(dp2269
g4
g21
sg6
I0
sg7
I2
sg8
F0.035999999999999997
sg9
g2243
sg14
I6
sg15
I16
sg16
(lp2270
g2222
ag2223
ag2224
asbaF0.017999999999999999
aa(lp2271
(imodeler.Context
Context
p2272
(dp2273
g4
g21
sg6
I1
sg7
I2
sg8
F0.035000000000000003
sg9
g2228
sg14
I6
sg15
I16
sg16
(lp2274
g2222
ag2223
ag2224
asbaF0.058000000000000003
aa(lp2275
(imodeler.Context
Context
p2276
(dp2277
g4
g21
sg6
I2
sg7
I2
sg8
F0.023
sg9
g2200
sg14
I6
sg15
I16
sg16
(lp2278
g2222
ag2223
ag2224
asbaF0.029999999999999999
aa(lp2279
(imodeler.Context
Context
p2280
(dp2281
g4
g21
sg6
I3
sg7
I2
sg8
F0.010999999999999999
sg9
g2207
sg14
I6
sg15
I16
sg16
(lp2282
g2222
ag2223
ag2224
asbaF0.216
aa(lp2283
(imodeler.Context
Context
p2284
(dp2285
g4
g5
sg6
I4
sg7
I3
sg8
F0.024
sg9
g2214
sg14
I6
sg15
I8
sg16
(lp2286
g2222
ag2223
ag2224
a(lp2287
I3
ag47
aasbaF0.027
aa(lp2288
(imodeler.Context
Context
p2289
(dp2290
g4
g5
sg6
I0
sg7
I3
sg8
F0.023
sg9
g2243
sg14
I6
sg15
I9
sg16
(lp2291
g2222
ag2223
ag2224
ag2287
asbaF0.024
aa(lp2292
(imodeler.Context
Context
p2293
(dp2294
g4
g5
sg6
I4
sg7
I3
sg8
F0.021000000000000001
sg9
g2214
sg14
I6
sg15
I12
sg16
(lp2295
g2222
ag2223
ag2224
ag2287
asbaF0.029999999999999999
aa(lp2296
(imodeler.Context
Context
p2297
(dp2298
g4
g5
sg6
I0
sg7
I3
sg8
F0.02
sg9
g2243
sg14
I6
sg15
I13
sg16
(lp2299
g2222
ag2223
ag2224
ag2287
asbaF0.014999999999999999
aa(lp2300
(imodeler.Context
Context
p2301
(dp2302
g4
g21
sg6
I1
sg7
I3
sg8
F0.025999999999999999
sg9
g2228
sg14
I6
sg15
I14
sg16
(lp2303
g2222
ag2223
ag2224
ag2287
asbaF0.040000000000000001
aa(lp2304
(imodeler.Context
Context
p2305
(dp2306
g4
g5
sg6
I2
sg7
I3
sg8
F0.019
sg9
g2200
sg14
I6
sg15
I14
sg16
(lp2307
g2222
ag2223
ag2224
ag2287
asbaF0.029999999999999999
aa(lp2308
(imodeler.Context
Context
p2309
(dp2310
g4
g5
sg6
I3
sg7
I3
sg8
F0.019
sg9
g2207
sg14
I6
sg15
I15
sg16
(lp2311
g2222
ag2223
ag2224
ag2287
asbaF0.057000000000000002
aa(lp2312
(imodeler.Context
Context
p2313
(dp2314
g4
g21
sg6
I4
sg7
I3
sg8
F0.017999999999999999
sg9
g2214
sg14
I6
sg15
I16
sg16
(lp2315
g2222
ag2223
ag2224
ag2287
asbaF0.073999999999999996
aa(lp2316
(imodeler.Context
Context
p2317
(dp2318
g4
g21
sg6
I0
sg7
I3
sg8
F0.012
sg9
g2243
sg14
I6
sg15
I16
sg16
(lp2319
g2222
ag2223
ag2224
ag2287
asbaF0.049000000000000002
aa(lp2320
(imodeler.Context
Context
p2321
(dp2322
g4
g21
sg6
I1
sg7
I3
sg8
F0.012
sg9
g2228
sg14
I6
sg15
I16
sg16
(lp2323
g2222
ag2223
ag2224
ag2287
asbaF0.092999999999999999
aa(lp2324
(imodeler.Context
Context
p2325
(dp2326
g4
g21
sg6
I2
sg7
I3
sg8
F0.0060000000000000001
sg9
g2200
sg14
I6
sg15
I16
sg16
(lp2327
g2222
ag2223
ag2224
ag2287
asbaF0.021000000000000001
aa(lp2328
(imodeler.Context
Context
p2329
(dp2330
g4
g5
sg6
I4
sg7
I4
sg8
F0.014
sg9
g2214
sg14
I6
sg15
I9
sg16
(lp2331
g2222
ag2223
ag2224
ag2287
a(lp2332
I3
ag33
aasbaF0.02
aa(lp2333
(imodeler.Context
Context
p2334
(dp2335
g4
g5
sg6
I0
sg7
I4
sg8
F0.014
sg9
g2243
sg14
I6
sg15
I10
sg16
(lp2336
g2222
ag2223
ag2224
ag2287
ag2332
asbaF0.039
aa(lp2337
(imodeler.Context
Context
p2338
(dp2339
g4
g5
sg6
I3
sg7
I4
sg8
F0.012999999999999999
sg9
g2207
sg14
I6
sg15
I12
sg16
(lp2340
g2222
ag2223
ag2224
ag2287
ag2332
asbaF0.059999999999999998
aa(lp2341
(imodeler.Context
Context
p2342
(dp2343
g4
g5
sg6
I4
sg7
I4
sg8
F0.012999999999999999
sg9
g2214
sg14
I6
sg15
I13
sg16
(lp2344
g2222
ag2223
ag2224
ag2287
ag2332
asbaF0.025000000000000001
aa(lp2345
(imodeler.Context
Context
p2346
(dp2347
g4
g5
sg6
I0
sg7
I4
sg8
F0.012999999999999999
sg9
g2243
sg14
I6
sg15
I14
sg16
(lp2348
g2222
ag2223
ag2224
ag2287
ag2332
asbaF0.025000000000000001
aa(lp2349
(imodeler.Context
Context
p2350
(dp2351
g4
g21
sg6
I1
sg7
I4
sg8
F0.017000000000000001
sg9
g2228
sg14
I6
sg15
I15
sg16
(lp2352
g2222
ag2223
ag2224
ag2287
ag2332
asbaF0.040000000000000001
aa(lp2353
(imodeler.Context
Context
p2354
(dp2355
g4
g5
sg6
I2
sg7
I4
sg8
F0.012
sg9
g2200
sg14
I6
sg15
I15
sg16
(lp2356
g2222
ag2223
ag2224
ag2287
ag2332
asbaF0.029999999999999999
aa(lp2357
(imodeler.Context
Context
p2358
(dp2359
g4
g21
sg6
I3
sg7
I4
sg8
F0.012
sg9
g2207
sg14
I6
sg15
I16
sg16
(lp2360
g2222
ag2223
ag2224
ag2287
ag2332
asbaF0.048000000000000001
aa(lp2361
(imodeler.Context
Context
p2362
(dp2363
g4
g21
sg6
I4
sg7
I4
sg8
F0.0080000000000000002
sg9
g2214
sg14
I6
sg15
I16
sg16
(lp2364
g2222
ag2223
ag2224
ag2287
ag2332
asbaF0.083000000000000004
aa(lp2365
(imodeler.Context
Context
p2366
(dp2367
g4
g21
sg6
I0
sg7
I4
sg8
F0.0040000000000000001
sg9
g2243
sg14
I6
sg15
I16
sg16
(lp2368
g2222
ag2223
ag2224
ag2287
ag2332
asbaF0.042999999999999997
aa(lp2369
(imodeler.Context
Context
p2370
(dp2371
g4
g21
sg6
I1
sg7
I4
sg8
F0.0040000000000000001
sg9
g2228
sg14
I6
sg15
I16
sg16
(lp2372
g2222
ag2223
ag2224
ag2287
ag2332
asbaF0.033000000000000002
aa(lp2373
(imodeler.Context
Context
p2374
(dp2375
g4
g21
sg6
I4
sg7
I1
sg8
F0.25
sg9
(lp2376
(lp2377
I7
ag12
aa(lp2378
I10
ag33
aasg14
I6
sg15
I0
sg16
(lp2379
sbaF0.024
aa(lp2380
(imodeler.Context
Context
p2381
(dp2382
g4
g21
sg6
I2
sg7
I3
sg8
F0.021999999999999999
sg9
(lp2383
(lp2384
I7
ag33
aa(lp2385
I7
ag47
aasg14
I6
sg15
I1
sg16
(lp2386
(lp2387
I3
ag25
aa(lp2388
I6
ag33
aa(lp2389
I10
ag47
aa(lp2390
I6
ag47
aasbaF0.065000000000000002
aa(lp2391
(imodeler.Context
Context
p2392
(dp2393
g4
g5
sg6
I5
sg7
I1
sg8
F0.5
sg9
(lp2394
(lp2395
I13
ag12
aa(lp2396
I13
ag25
aasg14
I6
sg15
I0
sg16
(lp2397
sbaF0.31
aa(lp2398
(imodeler.Context
Context
p2399
(dp2400
g4
g5
sg6
I1
sg7
I1
sg8
F0.154
sg9
(lp2401
(lp2402
I11
ag33
aa(lp2403
I11
ag47
aasg14
I6
sg15
I1
sg16
(lp2404
sbaF0.083000000000000004
aa(lp2405
(imodeler.Context
Context
p2406
(dp2407
g4
g5
sg6
I5
sg7
I1
sg8
F0.095000000000000001
sg9
g2394
sg14
I6
sg15
I2
sg16
(lp2408
sbaF0.214
aa(lp2409
(imodeler.Context
Context
p2410
(dp2411
g4
g21
sg6
I0
sg7
I1
sg8
F0.14799999999999999
sg9
(lp2412
(lp2413
I3
ag12
aa(lp2414
I3
ag33
aasg14
I6
sg15
I3
sg16
(lp2415
sbaF0.017999999999999999
aa(lp2416
(imodeler.Context
Context
p2417
(dp2418
g4
g5
sg6
I1
sg7
I1
sg8
F0.069000000000000006
sg9
g2401
sg14
I6
sg15
I3
sg16
(lp2419
sbaF0.067000000000000004
aa(lp2420
(imodeler.Context
Context
p2421
(dp2422
g4
g5
sg6
I5
sg7
I1
sg8
F0.053999999999999999
sg9
g2394
sg14
I6
sg15
I4
sg16
(lp2423
sbaF0.214
aa(lp2424
(imodeler.Context
Context
p2425
(dp2426
g4
g21
sg6
I0
sg7
I1
sg8
F0.092999999999999999
sg9
g2412
sg14
I6
sg15
I5
sg16
(lp2427
sbaF0.017999999999999999
aa(lp2428
(imodeler.Context
Context
p2429
(dp2430
g4
g5
sg6
I1
sg7
I1
sg8
F0.043999999999999997
sg9
g2401
sg14
I6
sg15
I5
sg16
(lp2431
sbaF0.067000000000000004
aa(lp2432
(imodeler.Context
Context
p2433
(dp2434
g4
g5
sg6
I5
sg7
I1
sg8
F0.037999999999999999
sg9
g2394
sg14
I6
sg15
I6
sg16
(lp2435
sbaF0.214
aa(lp2436
(imodeler.Context
Context
p2437
(dp2438
g4
g21
sg6
I0
sg7
I1
sg8
F0.068000000000000005
sg9
g2412
sg14
I6
sg15
I7
sg16
(lp2439
sbaF0.017999999999999999
aa(lp2440
(imodeler.Context
Context
p2441
(dp2442
g4
g5
sg6
I1
sg7
I1
sg8
F0.033000000000000002
sg9
g2401
sg14
I6
sg15
I7
sg16
(lp2443
sbaF0.067000000000000004
aa(lp2444
(imodeler.Context
Context
p2445
(dp2446
g4
g21
sg6
I5
sg7
I1
sg8
F0.029000000000000001
sg9
g2394
sg14
I6
sg15
I8
sg16
(lp2447
sbaF0.051999999999999998
aa(lp2448
(imodeler.Context
Context
p2449
(dp2450
g4
g5
sg6
I5
sg7
I2
sg8
F0.024
sg9
g2394
sg14
I6
sg15
I1
sg16
(lp2451
(lp2452
I7
ag12
aa(lp2453
I2
ag12
aa(lp2454
I7
ag25
aasbaF0.062
aa(lp2455
(imodeler.Context
Context
p2456
(dp2457
g4
g5
sg6
I1
sg7
I2
sg8
F0.028000000000000001
sg9
g2401
sg14
I6
sg15
I9
sg16
(lp2458
g2452
ag2453
ag2454
asbaF0.248
aa(lp2459
(imodeler.Context
Context
p2460
(dp2461
g4
g5
sg6
I5
sg7
I2
sg8
F0.025999999999999999
sg9
g2394
sg14
I6
sg15
I10
sg16
(lp2462
g2452
ag2453
ag2454
asbaF0.035000000000000003
aa(lp2463
(imodeler.Context
Context
p2464
(dp2465
g4
g5
sg6
I0
sg7
I2
sg8
F0.025000000000000001
sg9
g2412
sg14
I6
sg15
I11
sg16
(lp2466
g2452
ag2453
ag2454
asbaF0.021999999999999999
aa(lp2467
(imodeler.Context
Context
p2468
(dp2469
g4
g21
sg6
I5
sg7
I2
sg8
F0.012
sg9
g2394
sg14
I6
sg15
I12
sg16
(lp2470
g2452
ag2453
ag2454
asbaF0.035999999999999997
aa(lp2471
(imodeler.Context
Context
p2472
(dp2473
g4
g5
sg6
I5
sg7
I3
sg8
F0.024
sg9
g2394
sg14
I6
sg15
I11
sg16
(lp2474
g2452
ag2453
ag2454
a(lp2475
I4
ag47
aasbaF0.035999999999999997
aa(lp2476
(imodeler.Context
Context
p2477
(dp2478
g4
g5
sg6
I0
sg7
I3
sg8
F0.023
sg9
g2412
sg14
I6
sg15
I12
sg16
(lp2479
g2452
ag2453
ag2454
ag2475
asbaF0.044999999999999998
aa(lp2480
(imodeler.Context
Context
p2481
(dp2482
g4
g5
sg6
I1
sg7
I3
sg8
F0.021999999999999999
sg9
g2401
sg14
I6
sg15
I13
sg16
(lp2483
g2452
ag2453
ag2454
ag2475
asbaF0.036999999999999998
aa(lp2484
(imodeler.Context
Context
p2485
(dp2486
g4
g5
sg6
I4
sg7
I3
sg8
F0.021999999999999999
sg9
(lp2487
(lp2488
I4
ag33
aa(lp2489
I12
ag12
aasg14
I6
sg15
I14
sg16
(lp2490
g2452
ag2453
ag2454
ag2475
asbaF0.031
aa(lp2491
(imodeler.Context
Context
p2492
(dp2493
g4
g5
sg6
I5
sg7
I3
sg8
F0.021000000000000001
sg9
g2394
sg14
I6
sg15
I15
sg16
(lp2494
g2452
ag2453
ag2454
ag2475
asbaF0.108
aa(lp2495
(imodeler.Context
Context
p2496
(dp2497
g4
g5
sg6
I5
sg7
I4
sg8
F0.017000000000000001
sg9
g2394
sg14
I6
sg15
I8
sg16
(lp2498
g2452
ag2453
ag2454
ag2475
a(lp2499
I3
ag25
aasbaF0.055
aa(lp2500
(imodeler.Context
Context
p2501
(dp2502
g4
g5
sg6
I5
sg7
I4
sg8
F0.014999999999999999
sg9
g2394
sg14
I6
sg15
I12
sg16
(lp2503
g2452
ag2453
ag2454
ag2475
ag2499
asbaF0.34999999999999998
aa(lp2504
(imodeler.Context
Context
p2505
(dp2506
g4
g5
sg6
I0
sg7
I4
sg8
F0.014999999999999999
sg9
g2412
sg14
I6
sg15
I13
sg16
(lp2507
g2452
ag2453
ag2454
ag2475
ag2499
asbaF0.02
aa(lp2508
(imodeler.Context
Context
p2509
(dp2510
g4
g5
sg6
I1
sg7
I4
sg8
F0.014999999999999999
sg9
g2401
sg14
I6
sg15
I14
sg16
(lp2511
g2452
ag2453
ag2454
ag2475
ag2499
asbaF0.087999999999999995
aa(lp2512
(imodeler.Context
Context
p2513
(dp2514
g4
g5
sg6
I4
sg7
I4
sg8
F0.014
sg9
g2487
sg14
I6
sg15
I15
sg16
(lp2515
g2452
ag2453
ag2454
ag2475
ag2499
asbaF0.033000000000000002
aa(lp2516
(imodeler.Context
Context
p2517
(dp2518
g4
g21
sg6
I5
sg7
I4
sg8
F0.014
sg9
g2394
sg14
I6
sg15
I16
sg16
(lp2519
g2452
ag2453
ag2454
ag2475
ag2499
asbaF0.19
aa(lp2520
(imodeler.Context
Context
p2521
(dp2522
g4
g21
sg6
I3
sg7
I1
sg8
F0.0
sg9
(lp2523
(lp2524
I7
ag47
aa(lp2525
I11
ag25
aasg14
I6
sg15
I0
sg16
(lp2526
sbaF0.045999999999999999
aa(lp2527
(imodeler.Context
Context
p2528
(dp2529
g4
g5
sg6
I3
sg7
I2
sg8
F0.125
sg9
g2523
sg14
I6
sg15
I1
sg16
(lp2530
(lp2531
I2
ag25
aa(lp2532
I5
ag33
aa(lp2533
I7
ag33
aasbaF0.041000000000000002
aa(lp2534
(imodeler.Context
Context
p2535
(dp2536
g4
g5
sg6
I1
sg7
I1
sg8
F0.5
sg9
(lp2537
(lp2538
I13
ag47
aa(lp2539
I11
ag12
aasg14
I6
sg15
I0
sg16
(lp2540
sbaF0.16
aa(lp2541
(imodeler.Context
Context
p2542
(dp2543
g4
g21
sg6
I4
sg7
I2
sg8
F0.13300000000000001
sg9
(lp2544
(lp2545
I10
ag12
aa(lp2546
I9
ag47
aasg14
I6
sg15
I1
sg16
(lp2547
(lp2548
I7
ag25
aa(lp2549
I12
ag25
aa(lp2550
I5
ag12
aasbaF0.029000000000000001
aa(lp2551
(imodeler.Context
Context
p2552
(dp2553
g4
g21
sg6
I4
sg7
I3
sg8
F0.105
sg9
g2544
sg14
I6
sg15
I1
sg16
(lp2554
g2548
ag2549
ag2550
a(lp2555
I4
ag47
aasbaF0.017000000000000001
aa(lp2556
(imodeler.Context
Context
p2557
(dp2558
g4
g21
sg6
I3
sg7
I1
sg8
F0.076999999999999999
sg9
(lp2559
(lp2560
I13
ag12
aa(lp2561
I11
ag25
aasg14
I6
sg15
I0
sg16
(lp2562
sbaF0.029999999999999999
aa(lp2563
(imodeler.Context
Context
p2564
(dp2565
g4
g21
sg6
I2
sg7
I1
sg8
F0.0
sg9
(lp2566
(lp2567
I13
ag47
aa(lp2568
I14
ag33
aasg14
I6
sg15
I0
sg16
(lp2569
sbaF0.028000000000000001
aa(lp2570
(imodeler.Context
Context
p2571
(dp2572
g4
g21
sg6
I2
sg7
I2
sg8
F0.0
sg9
g2566
sg14
I6
sg15
I0
sg16
(lp2573
(lp2574
I3
ag33
aa(lp2575
I6
ag25
aa(lp2576
I3
ag12
aasbaF0.129
aa(lp2577
(imodeler.Context
Context
p2578
(dp2579
g4
g5
sg6
I2
sg7
I4
sg8
F0.154
sg9
g2566
sg14
I6
sg15
I1
sg16
(lp2580
g2574
ag2575
ag2576
a(lp2581
I4
ag33
aa(lp2582
I13
ag12
aasbaF0.089999999999999997
aa(lp2583
(imodeler.Context
Context
p2584
(dp2585
g4
g5
sg6
I1
sg7
I4
sg8
F0.11799999999999999
sg9
(lp2586
(lp2587
I4
ag12
aa(lp2588
I13
ag33
aasg14
I6
sg15
I2
sg16
(lp2589
g2574
ag2575
ag2576
ag2581
ag2582
asbaF0.02
aa(lp2590
(imodeler.Context
Context
p2591
(dp2592
g4
g5
sg6
I2
sg7
I4
sg8
F0.095000000000000001
sg9
g2566
sg14
I6
sg15
I3
sg16
(lp2593
g2574
ag2575
ag2576
ag2581
ag2582
asbaF0.089999999999999997
aa(lp2594
(imodeler.Context
Context
p2595
(dp2596
g4
g5
sg6
I2
sg7
I4
sg8
F0.069000000000000006
sg9
g2566
sg14
I6
sg15
I5
sg16
(lp2597
g2574
ag2575
ag2576
ag2581
ag2582
asbaF0.089999999999999997
aa(lp2598
(imodeler.Context
Context
p2599
(dp2600
g4
g5
sg6
I1
sg7
I1
sg8
F0.33300000000000002
sg9
(lp2601
(lp2602
I8
ag33
aa(lp2603
I14
ag33
aasg14
I6
sg15
I0
sg16
(lp2604
sbaF0.19400000000000001
aa(lp2605
(imodeler.Context
Context
p2606
(dp2607
g4
g21
sg6
I4
sg7
I4
sg8
F0.105
sg9
(lp2608
(lp2609
I6
ag25
aa(lp2610
I7
ag12
aasg14
I6
sg15
I3
sg16
(lp2611
(lp2612
I4
ag12
aa(lp2613
I13
ag47
aa(lp2614
I12
ag47
aa(lp2615
I4
ag25
aa(lp2616
I14
ag12
aasbaF0.042000000000000003
aa(lp2617
(imodeler.Context
Context
p2618
(dp2619
g4
g21
sg6
I4
sg7
I4
sg8
F0.080000000000000002
sg9
g2608
sg14
I6
sg15
I5
sg16
(lp2620
g2612
ag2613
ag2614
ag2615
ag2616
asbaF0.025000000000000001
aa(lp2621
(imodeler.Context
Context
p2622
(dp2623
g4
g21
sg6
I1
sg7
I3
sg8
F0.129
sg9
(lp2624
(lp2625
I9
ag33
aa(lp2626
I8
ag47
aasg14
I6
sg15
I2
sg16
(lp2627
(lp2628
I4
ag47
aa(lp2629
I3
ag47
aa(lp2630
I7
ag12
aa(lp2631
I10
ag47
aasbaF0.029000000000000001
aa(lp2632
(imodeler.Context
Context
p2633
(dp2634
g4
g5
sg6
I1
sg7
I1
sg8
F0.0
sg9
(lp2635
(lp2636
I14
ag47
aa(lp2637
I10
ag47
aasg14
I6
sg15
I0
sg16
(lp2638
sbaF0.254
aa(lp2639
(imodeler.Context
Context
p2640
(dp2641
g4
g21
sg6
I4
sg7
I1
sg8
F0.182
sg9
(lp2642
(lp2643
I8
ag47
aa(lp2644
I14
ag12
aasg14
I6
sg15
I1
sg16
(lp2645
sbaF0.014
aa(lp2646
(imodeler.Context
Context
p2647
(dp2648
g4
g5
sg6
I4
sg7
I1
sg8
F0.0
sg9
(lp2649
(lp2650
I13
ag33
aa(lp2651
I14
ag25
aasg14
I6
sg15
I0
sg16
(lp2652
sbaF0.086999999999999994
aa(lp2653
(imodeler.Context
Context
p2654
(dp2655
g4
g21
sg6
I0
sg7
I1
sg8
F0.154
sg9
(lp2656
(lp2657
I4
ag25
aa(lp2658
I12
ag25
aasg14
I6
sg15
I1
sg16
(lp2659
sbaF0.017000000000000001
aa(lp2660
(imodeler.Context
Context
p2661
(dp2662
g4
g21
sg6
I0
sg7
I4
sg8
F0.083000000000000004
sg9
g2656
sg14
I6
sg15
I2
sg16
(lp2663
(lp2664
I9
ag12
aa(lp2665
I9
ag25
aa(lp2666
I11
ag25
aa(lp2667
I2
ag25
aa(lp2668
I13
ag47
aasbaF0.014999999999999999
aa(lp2669
(imodeler.Context
Context
p2670
(dp2671
g4
g21
sg6
I1
sg7
I4
sg8
F0.076999999999999999
sg9
(lp2672
(lp2673
I7
ag47
aa(lp2674
I10
ag47
aasg14
I6
sg15
I2
sg16
(lp2675
g2664
ag2665
ag2666
ag2667
ag2668
asbaF0.014
aa(lp2676
(imodeler.Context
Context
p2677
(dp2678
g4
g21
sg6
I1
sg7
I4
sg8
F0.058999999999999997
sg9
g2672
sg14
I6
sg15
I4
sg16
(lp2679
g2664
ag2665
ag2666
ag2667
ag2668
asbaF0.086999999999999994
aa(lp2680
(imodeler.Context
Context
p2681
(dp2682
g4
g21
sg6
I1
sg7
I4
sg8
F0.048000000000000001
sg9
g2672
sg14
I6
sg15
I6
sg16
(lp2683
g2664
ag2665
ag2666
ag2667
ag2668
asbaF0.089999999999999997
aa(lp2684
(imodeler.Context
Context
p2685
(dp2686
g4
g5
sg6
I2
sg7
I4
sg8
F0.023
sg9
(lp2687
(lp2688
I9
ag33
aa(lp2689
I13
ag12
aasg14
I6
sg15
I6
sg16
(lp2690
g2664
ag2665
ag2666
ag2667
ag2668
asbaF0.043999999999999997
aa(lp2691
(imodeler.Context
Context
p2692
(dp2693
g4
g21
sg6
I3
sg7
I1
sg8
F0.33300000000000002
sg9
(lp2694
(lp2695
I11
ag33
aa(lp2696
I14
ag33
aasg14
I6
sg15
I1
sg16
(lp2697
sbaF0.044999999999999998
aa(lp2698
(imodeler.Context
Context
p2699
(dp2700
g4
g5
sg6
I4
sg7
I2
sg8
F0.065000000000000002
sg9
(lp2701
(lp2702
I9
ag12
aa(lp2703
I11
ag47
aasg14
I6
sg15
I1
sg16
(lp2704
(lp2705
I2
ag33
aa(lp2706
I11
ag25
aa(lp2707
I3
ag33
aasbaF0.076999999999999999
aa(lp2708
(imodeler.Context
Context
p2709
(dp2710
g4
g21
sg6
I1
sg7
I3
sg8
F0.035000000000000003
sg9
(lp2711
(lp2712
I14
ag25
aa(lp2713
I7
ag33
aasg14
I6
sg15
I11
sg16
(lp2714
g2705
ag2706
ag2707
a(lp2715
I13
ag33
aasbaF0.017999999999999999
aa(lp2716
(imodeler.Context
Context
p2717
(dp2718
g4
g21
sg6
I1
sg7
I4
sg8
F0.024
sg9
g2711
sg14
I6
sg15
I9
sg16
(lp2719
g2705
ag2706
ag2707
ag2715
a(lp2720
I9
ag33
aasbaF0.017999999999999999
aa(lp2721
(imodeler.Context
Context
p2722
(dp2723
g4
g21
sg6
I2
sg7
I1
sg8
F0.33300000000000002
sg9
(lp2724
(lp2725
I9
ag33
aa(lp2726
I11
ag47
aasg14
I6
sg15
I1
sg16
(lp2727
sbaF0.028000000000000001
aa(lp2728
(imodeler.Context
Context
p2729
(dp2730
g4
g21
sg6
I0
sg7
I2
sg8
F0.066000000000000003
sg9
(lp2731
(lp2732
I2
ag47
aa(lp2733
I2
ag33
aasg14
I6
sg15
I9
sg16
(lp2734
(lp2735
I7
ag47
aa(lp2736
I8
ag33
aa(lp2737
I6
ag12
aasbaF0.034000000000000002
aa(lp2738
(imodeler.Context
Context
p2739
(dp2740
g4
g5
sg6
I1
sg7
I4
sg8
F0.11799999999999999
sg9
(lp2741
(lp2742
I10
ag33
aa(lp2743
I2
ag33
aasg14
I6
sg15
I1
sg16
(lp2744
(lp2745
I9
ag25
aa(lp2746
I6
ag47
aa(lp2747
I5
ag25
aa(lp2748
I7
ag12
aa(lp2749
I8
ag12
aasbaF0.021999999999999999
aa(lp2750
(imodeler.Context
Context
p2751
(dp2752
g4
g5
sg6
I2
sg7
I4
sg8
F0.095000000000000001
sg9
(lp2753
(lp2754
I9
ag47
aa(lp2755
I10
ag12
aasg14
I6
sg15
I2
sg16
(lp2756
g2745
ag2746
ag2747
ag2748
ag2749
asbaF0.02
aa(lp2757
(imodeler.Context
Context
p2758
(dp2759
g4
g5
sg6
I1
sg7
I4
sg8
F0.080000000000000002
sg9
g2741
sg14
I6
sg15
I3
sg16
(lp2760
g2745
ag2746
ag2747
ag2748
ag2749
asbaF0.01
aa(lp2761
(imodeler.Context
Context
p2762
(dp2763
g4
g5
sg6
I2
sg7
I4
sg8
F0.069000000000000006
sg9
g2753
sg14
I6
sg15
I4
sg16
(lp2764
g2745
ag2746
ag2747
ag2748
ag2749
asbaF0.02
aa(lp2765
(imodeler.Context
Context
p2766
(dp2767
g4
g5
sg6
I5
sg7
I2
sg8
F0.043999999999999997
sg9
(lp2768
(lp2769
I10
ag12
aa(lp2770
I10
ag47
aasg14
I6
sg15
I9
sg16
(lp2771
(lp2772
I3
ag12
aa(lp2773
I2
ag25
aa(lp2774
I11
ag47
aasbaF0.094
aa(lp2775
(imodeler.Context
Context
p2776
(dp2777
g4
g5
sg6
I2
sg7
I1
sg8
F0.25
sg9
(lp2778
(lp2779
I14
ag12
aa(lp2780
I14
ag25
aasg14
I6
sg15
I0
sg16
(lp2781
sbaF0.39500000000000002
aa(lp2782
(imodeler.Context
Context
p2783
(dp2784
g4
g5
sg6
I1
sg7
I1
sg8
F0.5
sg9
(lp2785
(lp2786
I12
ag33
aa(lp2787
I12
ag47
aasg14
I6
sg15
I1
sg16
(lp2788
sbaF0.073999999999999996
aa(lp2789
(imodeler.Context
Context
p2790
(dp2791
g4
g21
sg6
I4
sg7
I1
sg8
F0.29399999999999998
sg9
(lp2792
(lp2793
I8
ag33
aa(lp2794
I10
ag47
aasg14
I6
sg15
I2
sg16
(lp2795
sbaF0.025000000000000001
aa(lp2796
(imodeler.Context
Context
p2797
(dp2798
g4
g21
sg6
I5
sg7
I1
sg8
F0.27300000000000002
sg9
(lp2799
(lp2800
I14
ag25
aa(lp2801
I9
ag47
aasg14
I6
sg15
I1
sg16
(lp2802
sbaF0.074999999999999997
aa(lp2803
(imodeler.Context
Context
p2804
(dp2805
g4
g5
sg6
I4
sg7
I1
sg8
F0.25
sg9
(lp2806
(lp2807
I8
ag12
aa(lp2808
I8
ag33
aasg14
I6
sg15
I0
sg16
(lp2809
sbaF0.080000000000000002
aa(lp2810
(imodeler.Context
Context
p2811
(dp2812
g4
g5
sg6
I4
sg7
I1
sg8
F0.33300000000000002
sg9
(lp2813
(lp2814
I6
ag33
aa(lp2815
I6
ag25
aasg14
I6
sg15
I1
sg16
(lp2816
sbaF0.070000000000000007
aa(lp2817
(imodeler.Context
Context
p2818
(dp2819
g4
g5
sg6
I1
sg7
I1
sg8
F0.083000000000000004
sg9
(lp2820
(lp2821
I14
ag33
aa(lp2822
I11
ag33
aasg14
I6
sg15
I2
sg16
(lp2823
sbaF0.109
aa(lp2824
(imodeler.Context
Context
p2825
(dp2826
g4
g5
sg6
I4
sg7
I1
sg8
F0.063
sg9
g2813
sg14
I6
sg15
I3
sg16
(lp2827
sbaF0.20799999999999999
aa(lp2828
(imodeler.Context
Context
p2829
(dp2830
g4
g5
sg6
I1
sg7
I1
sg8
F0.050000000000000003
sg9
g2820
sg14
I6
sg15
I4
sg16
(lp2831
sbaF0.108
aa(lp2832
(imodeler.Context
Context
p2833
(dp2834
g4
g5
sg6
I4
sg7
I1
sg8
F0.042000000000000003
sg9
g2813
sg14
I6
sg15
I5
sg16
(lp2835
sbaF0.21099999999999999
aa(lp2836
(imodeler.Context
Context
p2837
(dp2838
g4
g5
sg6
I1
sg7
I1
sg8
F0.035999999999999997
sg9
g2820
sg14
I6
sg15
I6
sg16
(lp2839
sbaF0.108
aa(lp2840
(imodeler.Context
Context
p2841
(dp2842
g4
g5
sg6
I4
sg7
I1
sg8
F0.031
sg9
g2813
sg14
I6
sg15
I7
sg16
(lp2843
sbaF0.20699999999999999
aa(lp2844
(imodeler.Context
Context
p2845
(dp2846
g4
g5
sg6
I4
sg7
I1
sg8
F0.076999999999999999
sg9
(lp2847
(lp2848
I14
ag33
aa(lp2849
I12
ag33
aasg14
I6
sg15
I2
sg16
(lp2850
sbaF0.26000000000000001
aa(lp2851
(imodeler.Context
Context
p2852
(dp2853
g4
g5
sg6
I4
sg7
I1
sg8
F0.042999999999999997
sg9
g2847
sg14
I6
sg15
I4
sg16
(lp2854
sbaF0.26000000000000001
aa(lp2855
(imodeler.Context
Context
p2856
(dp2857
g4
g5
sg6
I4
sg7
I1
sg8
F0.029999999999999999
sg9
g2847
sg14
I6
sg15
I6
sg16
(lp2858
sbaF0.26000000000000001
aa(lp2859
(imodeler.Context
Context
p2860
(dp2861
g4
g21
sg6
I4
sg7
I1
sg8
F0.5
sg9
(lp2862
(lp2863
I8
ag25
aa(lp2864
I9
ag33
aasg14
I6
sg15
I1
sg16
(lp2865
sbaF0.017999999999999999
aa(lp2866
(imodeler.Context
Context
p2867
(dp2868
g4
g21
sg6
I0
sg7
I3
sg8
F0.111
sg9
(lp2869
(lp2870
I7
ag25
aa(lp2871
I10
ag47
aasg14
I6
sg15
I2
sg16
(lp2872
(lp2873
I2
ag12
aa(lp2874
I8
ag47
aa(lp2875
I4
ag12
aa(lp2876
I2
ag25
aasbaF0.023
aa(lp2877
(imodeler.Context
Context
p2878
(dp2879
g4
g5
sg6
I3
sg7
I3
sg8
F0.025999999999999999
sg9
(lp2880
(lp2881
I10
ag47
aa(lp2882
I11
ag25
aasg14
I6
sg15
I9
sg16
(lp2883
(lp2884
I9
ag47
aa(lp2885
I12
ag47
aa(lp2886
I11
ag33
aa(lp2887
I13
ag33
aasbaF0.23899999999999999
aa(lp2888
(imodeler.Context
Context
p2889
(dp2890
g4
g21
sg6
I4
sg7
I3
sg8
F0.036999999999999998
sg9
(lp2891
(lp2892
I3
ag25
aa(lp2893
I14
ag25
aasg14
I6
sg15
I10
sg16
(lp2894
g2884
ag2885
ag2886
ag2887
asbaF0.055
aa(lp2895
(imodeler.Context
Context
p2896
(dp2897
g4
g5
sg6
I3
sg7
I4
sg8
F0.010999999999999999
sg9
g2880
sg14
I6
sg15
I1
sg16
(lp2898
g2884
ag2885
ag2886
ag2887
a(lp2899
I7
ag25
aasbaF0.032000000000000001
aa(lp2900
(imodeler.Context
Context
p2901
(dp2902
g4
g5
sg6
I3
sg7
I4
sg8
F0.017000000000000001
sg9
g2880
sg14
I6
sg15
I7
sg16
(lp2903
g2884
ag2885
ag2886
ag2887
ag2899
asbaF0.029999999999999999
aa(lp2904
(imodeler.Context
Context
p2905
(dp2906
g4
g5
sg6
I3
sg7
I4
sg8
F0.016
sg9
g2880
sg14
I6
sg15
I10
sg16
(lp2907
g2884
ag2885
ag2886
ag2887
ag2899
asbaF0.035999999999999997
aa(lp2908
(imodeler.Context
Context
p2909
(dp2910
g4
g21
sg6
I4
sg7
I4
sg8
F0.023
sg9
g2891
sg14
I6
sg15
I11
sg16
(lp2911
g2884
ag2885
ag2886
ag2887
ag2899
asbaF0.017000000000000001
aa(lp2912
(imodeler.Context
Context
p2913
(dp2914
g4
g21
sg6
I2
sg7
I1
sg8
F0.38500000000000001
sg9
(lp2915
(lp2916
I14
ag47
aa(lp2917
I13
ag33
aasg14
I6
sg15
I1
sg16
(lp2918
sbaF0.052999999999999999
aa(lp2919
(imodeler.Context
Context
p2920
(dp2921
g4
g21
sg6
I2
sg7
I2
sg8
F0.058999999999999997
sg9
g2915
sg14
I6
sg15
I1
sg16
(lp2922
(lp2923
I9
ag47
aa(lp2924
I9
ag25
aa(lp2925
I3
ag33
aasbaF0.063
aa(lp2926
(imodeler.Context
Context
p2927
(dp2928
g4
g21
sg6
I3
sg7
I2
sg8
F0.056000000000000001
sg9
(lp2929
(lp2930
I12
ag12
aa(lp2931
I14
ag12
aasg14
I6
sg15
I1
sg16
(lp2932
g2923
ag2924
ag2925
asbaF0.068000000000000005
aa(lp2933
(imodeler.Context
Context
p2934
(dp2935
g4
g21
sg6
I2
sg7
I2
sg8
F0.073999999999999996
sg9
g2915
sg14
I6
sg15
I3
sg16
(lp2936
g2923
ag2924
ag2925
asbaF0.089999999999999997
aa(lp2937
(imodeler.Context
Context
p2938
(dp2939
g4
g21
sg6
I3
sg7
I2
sg8
F0.069000000000000006
sg9
g2929
sg14
I6
sg15
I3
sg16
(lp2940
g2923
ag2924
ag2925
asbaF0.080000000000000002
aa(lp2941
(imodeler.Context
Context
p2942
(dp2943
g4
g21
sg6
I2
sg7
I2
sg8
F0.050999999999999997
sg9
g2915
sg14
I6
sg15
I5
sg16
(lp2944
g2923
ag2924
ag2925
asbaF0.068000000000000005
aa(lp2945
(imodeler.Context
Context
p2946
(dp2947
g4
g21
sg6
I2
sg7
I2
sg8
F0.039
sg9
g2915
sg14
I6
sg15
I7
sg16
(lp2948
g2923
ag2924
ag2925
asbaF0.068000000000000005
aa(lp2949
(imodeler.Context
Context
p2950
(dp2951
g4
g5
sg6
I5
sg7
I3
sg8
F0.035000000000000003
sg9
(lp2952
(lp2953
I3
ag47
aa(lp2954
I13
ag12
aasg14
I6
sg15
I10
sg16
(lp2955
g2923
ag2924
ag2925
a(lp2956
I14
ag25
aasbaF0.069000000000000006
aa(lp2957
(imodeler.Context
Context
p2958
(dp2959
g4
g21
sg6
I0
sg7
I3
sg8
F0.042000000000000003
sg9
(lp2960
(lp2961
I6
ag25
aa(lp2962
I8
ag33
aasg14
I6
sg15
I11
sg16
(lp2963
g2923
ag2924
ag2925
ag2956
asbaF0.042000000000000003
aa(lp2964
(imodeler.Context
Context
p2965
(dp2966
g4
g5
sg6
I2
sg7
I3
sg8
F0.031
sg9
g2915
sg14
I6
sg15
I12
sg16
(lp2967
g2923
ag2924
ag2925
ag2956
asbaF0.025999999999999999
aa(lp2968
(imodeler.Context
Context
p2969
(dp2970
g4
g5
sg6
I3
sg7
I3
sg8
F0.029999999999999999
sg9
g2929
sg14
I6
sg15
I13
sg16
(lp2971
g2923
ag2924
ag2925
ag2956
asbaF0.29799999999999999
aa(lp2972
(imodeler.Context
Context
p2973
(dp2974
g4
g5
sg6
I1
sg7
I3
sg8
F0.025999999999999999
sg9
(lp2975
(lp2976
I11
ag33
aa(lp2977
I11
ag12
aasg14
I6
sg15
I16
sg16
(lp2978
g2923
ag2924
ag2925
ag2956
asbaF0.25
aa(lp2979
(imodeler.Context
Context
p2980
(dp2981
g4
g5
sg6
I2
sg7
I3
sg8
F0.025000000000000001
sg9
g2915
sg14
I6
sg15
I17
sg16
(lp2982
g2923
ag2924
ag2925
ag2956
asbaF0.089999999999999997
aa(lp2983
(imodeler.Context
Context
p2984
(dp2985
g4
g5
sg6
I3
sg7
I3
sg8
F0.025000000000000001
sg9
g2929
sg14
I6
sg15
I18
sg16
(lp2986
g2923
ag2924
ag2925
ag2956
asbaF0.080000000000000002
aa(lp2987
(imodeler.Context
Context
p2988
(dp2989
g4
g5
sg6
I4
sg7
I3
sg8
F0.024
sg9
(lp2990
(lp2991
I6
ag12
aa(lp2992
I14
ag33
aasg14
I6
sg15
I19
sg16
(lp2993
g2923
ag2924
ag2925
ag2956
asbaF0.040000000000000001
aa(lp2994
(imodeler.Context
Context
p2995
(dp2996
g4
g21
sg6
I5
sg7
I3
sg8
F0.023
sg9
g2952
sg14
I6
sg15
I20
sg16
(lp2997
g2923
ag2924
ag2925
ag2956
asbaF0.11
aa(lp2998
(imodeler.Context
Context
p2999
(dp3000
g4
g21
sg6
I0
sg7
I3
sg8
F0.023
sg9
g2960
sg14
I6
sg15
I20
sg16
(lp3001
g2923
ag2924
ag2925
ag2956
asbaF0.01
aa(lp3002
(imodeler.Context
Context
p3003
(dp3004
g4
g21
sg6
I1
sg7
I3
sg8
F0.017000000000000001
sg9
g2975
sg14
I6
sg15
I20
sg16
(lp3005
g2923
ag2924
ag2925
ag2956
asbaF0.13
aa(lp3006
(imodeler.Context
Context
p3007
(dp3008
g4
g21
sg6
I2
sg7
I3
sg8
F0.010999999999999999
sg9
g2915
sg14
I6
sg15
I20
sg16
(lp3009
g2923
ag2924
ag2925
ag2956
asbaF0.089999999999999997
aa(lp3010
(imodeler.Context
Context
p3011
(dp3012
g4
g21
sg6
I3
sg7
I3
sg8
F0.0050000000000000001
sg9
g2929
sg14
I6
sg15
I20
sg16
(lp3013
g2923
ag2924
ag2925
ag2956
asbaF0.065000000000000002
aa(lp3014
(imodeler.Context
Context
p3015
(dp3016
g4
g5
sg6
I5
sg7
I4
sg8
F0.017000000000000001
sg9
g2952
sg14
I6
sg15
I11
sg16
(lp3017
g2923
ag2924
ag2925
ag2956
a(lp3018
I13
ag47
aasbaF0.082000000000000003
aa(lp3019
(imodeler.Context
Context
p3020
(dp3021
g4
g5
sg6
I1
sg7
I4
sg8
F0.016
sg9
g2975
sg14
I6
sg15
I12
sg16
(lp3022
g2923
ag2924
ag2925
ag2956
ag3018
asbaF0.14000000000000001
aa(lp3023
(imodeler.Context
Context
p3024
(dp3025
g4
g5
sg6
I2
sg7
I4
sg8
F0.016
sg9
g2915
sg14
I6
sg15
I13
sg16
(lp3026
g2923
ag2924
ag2925
ag2956
ag3018
asbaF0.089999999999999997
aa(lp3027
(imodeler.Context
Context
p3028
(dp3029
g4
g5
sg6
I3
sg7
I4
sg8
F0.014999999999999999
sg9
g2929
sg14
I6
sg15
I14
sg16
(lp3030
g2923
ag2924
ag2925
ag2956
ag3018
asbaF0.070000000000000007
aa(lp3031
(imodeler.Context
Context
p3032
(dp3033
g4
g5
sg6
I5
sg7
I4
sg8
F0.014999999999999999
sg9
g2952
sg14
I6
sg15
I16
sg16
(lp3034
g2923
ag2924
ag2925
ag2956
ag3018
asbaF0.02
aa(lp3035
(imodeler.Context
Context
p3036
(dp3037
g4
g21
sg6
I0
sg7
I4
sg8
F0.017999999999999999
sg9
g2960
sg14
I6
sg15
I17
sg16
(lp3038
g2923
ag2924
ag2925
ag2956
ag3018
asbaF0.01
aa(lp3039
(imodeler.Context
Context
p3040
(dp3041
g4
g5
sg6
I1
sg7
I4
sg8
F0.014
sg9
g2975
sg14
I6
sg15
I17
sg16
(lp3042
g2923
ag2924
ag2925
ag2956
ag3018
asbaF0.25
aa(lp3043
(imodeler.Context
Context
p3044
(dp3045
g4
g5
sg6
I2
sg7
I4
sg8
F0.014
sg9
g2915
sg14
I6
sg15
I18
sg16
(lp3046
g2923
ag2924
ag2925
ag2956
ag3018
asbaF0.089999999999999997
aa(lp3047
(imodeler.Context
Context
p3048
(dp3049
g4
g5
sg6
I3
sg7
I4
sg8
F0.014
sg9
g2929
sg14
I6
sg15
I19
sg16
(lp3050
g2923
ag2924
ag2925
ag2956
ag3018
asbaF0.080000000000000002
aa(lp3051
(imodeler.Context
Context
p3052
(dp3053
g4
g21
sg6
I4
sg7
I4
sg8
F0.014
sg9
g2990
sg14
I6
sg15
I20
sg16
(lp3054
g2923
ag2924
ag2925
ag2956
ag3018
asbaF0.055
aa(lp3055
(imodeler.Context
Context
p3056
(dp3057
g4
g21
sg6
I5
sg7
I4
sg8
F0.01
sg9
g2952
sg14
I6
sg15
I20
sg16
(lp3058
g2923
ag2924
ag2925
ag2956
ag3018
asbaF0.02
aa(lp3059
(imodeler.Context
Context
p3060
(dp3061
g4
g21
sg6
I0
sg7
I4
sg8
F0.01
sg9
g2960
sg14
I6
sg15
I20
sg16
(lp3062
g2923
ag2924
ag2925
ag2956
ag3018
asbaF0.025000000000000001
aa(lp3063
(imodeler.Context
Context
p3064
(dp3065
g4
g21
sg6
I1
sg7
I4
sg8
F0.0070000000000000001
sg9
g2975
sg14
I6
sg15
I20
sg16
(lp3066
g2923
ag2924
ag2925
ag2956
ag3018
asbaF0.14000000000000001
aa(lp3067
(imodeler.Context
Context
p3068
(dp3069
g4
g21
sg6
I2
sg7
I4
sg8
F0.0030000000000000001
sg9
g2915
sg14
I6
sg15
I20
sg16
(lp3070
g2923
ag2924
ag2925
ag2956
ag3018
asbaF0.042999999999999997
aa(lp3071
(imodeler.Context
Context
p3072
(dp3073
g4
g5
sg6
I4
sg7
I1
sg8
F0.14299999999999999
sg9
(lp3074
(lp3075
I14
ag12
aa(lp3076
I9
ag33
aasg14
I6
sg15
I0
sg16
(lp3077
sbaF0.085000000000000006
aa(lp3078
(imodeler.Context
Context
p3079
(dp3080
g4
g21
sg6
I3
sg7
I1
sg8
F0.14299999999999999
sg9
(lp3081
(lp3082
I12
ag25
aa(lp3083
I9
ag47
aasg14
I6
sg15
I0
sg16
(lp3084
sbaF0.025999999999999999
aa(lp3085
(imodeler.Context
Context
p3086
(dp3087
g4
g21
sg6
I5
sg7
I1
sg8
F0.375
sg9
(lp3088
(lp3089
I10
ag25
aa(lp3090
I12
ag33
aasg14
I6
sg15
I1
sg16
(lp3091
sbaF0.065000000000000002
aa(lp3092
(imodeler.Context
Context
p3093
(dp3094
g4
g21
sg6
I0
sg7
I2
sg8
F0.063
sg9
(lp3095
(lp3096
I10
ag47
aa(lp3097
I7
ag47
aasg14
I6
sg15
I10
sg16
(lp3098
(lp3099
I9
ag47
aa(lp3100
I9
ag12
aa(lp3101
I4
ag47
aasbaF0.037999999999999999
aa(lp3102
(imodeler.Context
Context
p3103
(dp3104
g4
g5
sg6
I2
sg7
I3
sg8
F0.034000000000000002
sg9
(lp3105
(lp3106
I4
ag33
aa(lp3107
I14
ag47
aasg14
I6
sg15
I8
sg16
(lp3108
g3099
ag3100
ag3101
a(lp3109
I10
ag25
aasbaF0.088999999999999996
aa(lp3110
(imodeler.Context
Context
p3111
(dp3112
g4
g5
sg6
I4
sg7
I3
sg8
F0.028000000000000001
sg9
(lp3113
(lp3114
I8
ag25
aa(lp3115
I8
ag12
aasg14
I6
sg15
I13
sg16
(lp3116
g3099
ag3100
ag3101
ag3109
asbaF0.11600000000000001
aa(lp3117
(imodeler.Context
Context
p3118
(dp3119
g4
g5
sg6
I0
sg7
I3
sg8
F0.027
sg9
g3095
sg14
I6
sg15
I14
sg16
(lp3120
g3099
ag3100
ag3101
ag3109
asbaF0.01
aa(lp3121
(imodeler.Context
Context
p3122
(dp3123
g4
g5
sg6
I1
sg7
I3
sg8
F0.025999999999999999
sg9
(lp3124
(lp3125
I9
ag25
aa(lp3126
I13
ag12
aasg14
I6
sg15
I15
sg16
(lp3127
g3099
ag3100
ag3101
ag3109
asbaF0.053999999999999999
aa(lp3128
(imodeler.Context
Context
p3129
(dp3130
g4
g21
sg6
I2
sg7
I4
sg8
F0.021999999999999999
sg9
g3105
sg14
I6
sg15
I4
sg16
(lp3131
g3099
ag3100
ag3101
ag3109
a(lp3132
I5
ag25
aasbaF0.17899999999999999
aa(lp3133
(imodeler.Context
Context
p3134
(dp3135
g4
g21
sg6
I2
sg7
I4
sg8
F0.019
sg9
g3105
sg14
I6
sg15
I10
sg16
(lp3136
g3099
ag3100
ag3101
ag3109
ag3132
asbaF0.040000000000000001
aa(lp3137
(imodeler.Context
Context
p3138
(dp3139
g4
g21
sg6
I1
sg7
I1
sg8
F0.076999999999999999
sg9
(lp3140
(lp3141
I4
ag47
aa(lp3142
I10
ag33
aasg14
I6
sg15
I0
sg16
(lp3143
sbaF0.025999999999999999
aa(lp3144
(imodeler.Context
Context
p3145
(dp3146
g4
g5
sg6
I2
sg7
I2
sg8
F0.083000000000000004
sg9
(lp3147
(lp3148
I10
ag33
aa(lp3149
I14
ag33
aasg14
I6
sg15
I4
sg16
(lp3150
(lp3151
I13
ag47
aa(lp3152
I13
ag12
aa(lp3153
I14
ag12
aasbaF0.035999999999999997
aa(lp3154
(imodeler.Context
Context
p3155
(dp3156
g4
g5
sg6
I2
sg7
I2
sg8
F0.042000000000000003
sg9
g3147
sg14
I6
sg15
I10
sg16
(lp3157
g3151
ag3152
ag3153
asbaF0.161
aa(lp3158
(imodeler.Context
Context
p3159
(dp3160
g4
g5
sg6
I2
sg7
I3
sg8
F0.014
sg9
g3147
sg14
I6
sg15
I5
sg16
(lp3161
g3151
ag3152
ag3153
a(lp3162
I3
ag47
aasbaF0.075999999999999998
aa(lp3163
(imodeler.Context
Context
p3164
(dp3165
g4
g21
sg6
I5
sg7
I2
sg8
F0.058999999999999997
sg9
(lp3166
(lp3167
I7
ag12
aa(lp3168
I7
ag33
aasg14
I6
sg15
I1
sg16
(lp3169
(lp3170
I14
ag25
aa(lp3171
I4
ag47
aa(lp3172
I10
ag47
aasbaF0.035000000000000003
aa(lp3173
(imodeler.Context
Context
p3174
(dp3175
g4
g21
sg6
I5
sg7
I3
sg8
F0.048000000000000001
sg9
g3166
sg14
I6
sg15
I1
sg16
(lp3176
g3170
ag3171
ag3172
a(lp3177
I3
ag25
aasbaF0.035000000000000003
aa(lp3178
(imodeler.Context
Context
p3179
(dp3180
g4
g21
sg6
I4
sg7
I2
sg8
F0.182
sg9
(lp3181
(lp3182
I9
ag33
aa(lp3183
I7
ag12
aasg14
I6
sg15
I2
sg16
(lp3184
(lp3185
I4
ag47
aa(lp3186
I2
ag47
aa(lp3187
I8
ag33
aasbaF0.028000000000000001
aa(lp3188
(imodeler.Context
Context
p3189
(dp3190
g4
g5
sg6
I1
sg7
I1
sg8
F0.313
sg9
(lp3191
(lp3192
I11
ag12
aa(lp3193
I13
ag12
aasg14
I6
sg15
I1
sg16
(lp3194
sbaF0.064000000000000001
aa(lp3195
(imodeler.Context
Context
p3196
(dp3197
g4
g21
sg6
I2
sg7
I1
sg8
F0.217
sg9
(lp3198
(lp3199
I14
ag33
aa(lp3200
I3
ag47
aasg14
I6
sg15
I2
sg16
(lp3201
sbaF0.033000000000000002
aa(lp3202
(imodeler.Context
Context
p3203
(dp3204
g4
g21
sg6
I3
sg7
I1
sg8
F0.14799999999999999
sg9
(lp3205
(lp3206
I6
ag12
aa(lp3207
I6
ag47
aasg14
I6
sg15
I2
sg16
(lp3208
sbaF0.044999999999999998
aa(lp3209
(imodeler.Context
Context
p3210
(dp3211
g4
g21
sg6
I4
sg7
I1
sg8
F0.129
sg9
(lp3212
(lp3213
I8
ag12
aa(lp3214
I7
ag47
aasg14
I6
sg15
I2
sg16
(lp3215
sbaF0.01
aa(lp3216
(imodeler.Context
Context
p3217
(dp3218
g4
g5
sg6
I0
sg7
I1
sg8
F0.053999999999999999
sg9
(lp3219
(lp3220
I13
ag33
aa(lp3221
I10
ag12
aasg14
I6
sg15
I2
sg16
(lp3222
sbaF0.059999999999999998
aa(lp3223
(imodeler.Context
Context
p3224
(dp3225
g4
g21
sg6
I2
sg7
I1
sg8
F0.085000000000000006
sg9
g3198
sg14
I6
sg15
I4
sg16
(lp3226
sbaF0.051999999999999998
aa(lp3227
(imodeler.Context
Context
p3228
(dp3229
g4
g21
sg6
I3
sg7
I1
sg8
F0.078
sg9
g3205
sg14
I6
sg15
I4
sg16
(lp3230
sbaF0.044999999999999998
aa(lp3231
(imodeler.Context
Context
p3232
(dp3233
g4
g21
sg6
I2
sg7
I1
sg8
F0.056000000000000001
sg9
g3198
sg14
I6
sg15
I6
sg16
(lp3234
sbaF0.051999999999999998
aa(lp3235
(imodeler.Context
Context
p3236
(dp3237
g4
g21
sg6
I3
sg7
I1
sg8
F0.052999999999999999
sg9
g3205
sg14
I6
sg15
I6
sg16
(lp3238
sbaF0.037999999999999999
aa(lp3239
(imodeler.Context
Context
p3240
(dp3241
g4
g21
sg6
I2
sg7
I1
sg8
F0.042000000000000003
sg9
g3198
sg14
I6
sg15
I8
sg16
(lp3242
sbaF0.191
aa(lp3243
(imodeler.Context
Context
p3244
(dp3245
g4
g21
sg6
I3
sg7
I1
sg8
F0.040000000000000001
sg9
g3205
sg14
I6
sg15
I8
sg16
(lp3246
sbaF0.048000000000000001
aa(lp3247
(imodeler.Context
Context
p3248
(dp3249
g4
g5
sg6
I3
sg7
I2
sg8
F0.017000000000000001
sg9
g3205
sg14
I6
sg15
I1
sg16
(lp3250
(lp3251
I4
ag33
aa(lp3252
I5
ag33
aa(lp3253
I2
ag33
aasbaF0.070000000000000007
aa(lp3254
(imodeler.Context
Context
p3255
(dp3256
g4
g21
sg6
I4
sg7
I2
sg8
F0.032000000000000001
sg9
g3212
sg14
I6
sg15
I2
sg16
(lp3257
g3251
ag3252
ag3253
asbaF0.098000000000000004
aa(lp3258
(imodeler.Context
Context
p3259
(dp3260
g4
g21
sg6
I0
sg7
I2
sg8
F0.031
sg9
g3219
sg14
I6
sg15
I2
sg16
(lp3261
g3251
ag3252
ag3253
asbaF0.052999999999999999
aa(lp3262
(imodeler.Context
Context
p3263
(dp3264
g4
g21
sg6
I0
sg7
I2
sg8
F0.027
sg9
g3219
sg14
I6
sg15
I4
sg16
(lp3265
g3251
ag3252
ag3253
asbaF0.056000000000000001
aa(lp3266
(imodeler.Context
Context
p3267
(dp3268
g4
g21
sg6
I3
sg7
I3
sg8
F0.0
sg9
g3205
sg14
I6
sg15
I0
sg16
(lp3269
g3251
ag3252
ag3253
a(lp3270
I8
ag47
aasbaF0.044999999999999998
aa(lp3271
(imodeler.Context
Context
p3272
(dp3273
g4
g21
sg6
I3
sg7
I3
sg8
F0.019
sg9
g3205
sg14
I6
sg15
I2
sg16
(lp3274
g3251
ag3252
ag3253
ag3270
asbaF0.051999999999999998
aa(lp3275
(imodeler.Context
Context
p3276
(dp3277
g4
g21
sg6
I3
sg7
I3
sg8
F0.017999999999999999
sg9
g3205
sg14
I6
sg15
I4
sg16
(lp3278
g3251
ag3252
ag3253
ag3270
asbaF0.059999999999999998
aa(lp3279
(imodeler.Context
Context
p3280
(dp3281
g4
g21
sg6
I3
sg7
I3
sg8
F0.016
sg9
g3205
sg14
I6
sg15
I6
sg16
(lp3282
g3251
ag3252
ag3253
ag3270
asbaF0.059999999999999998
aa(lp3283
(imodeler.Context
Context
p3284
(dp3285
g4
g21
sg6
I0
sg7
I4
sg8
F0.017000000000000001
sg9
g3219
sg14
I6
sg15
I9
sg16
(lp3286
g3251
ag3252
ag3253
ag3270
a(lp3287
I7
ag33
aasbaF0.027
aa(lp3288
(imodeler.Context
Context
p3289
(dp3290
g4
g5
sg6
I2
sg7
I4
sg8
F0.010999999999999999
sg9
g3198
sg14
I6
sg15
I9
sg16
(lp3291
g3251
ag3252
ag3253
ag3270
ag3287
asbaF0.035999999999999997
aa(lp3292
(imodeler.Context
Context
p3293
(dp3294
g4
g21
sg6
I1
sg7
I2
sg8
F0.056000000000000001
sg9
(lp3295
(lp3296
I6
ag12
aa(lp3297
I12
ag47
aasg14
I6
sg15
I10
sg16
(lp3298
(lp3299
I5
ag33
aa(lp3300
I13
ag33
aa(lp3301
I14
ag47
aasbaF0.014
aa(lp3302
(imodeler.Context
Context
p3303
(dp3304
g4
g5
sg6
I3
sg7
I2
sg8
F0.050000000000000003
sg9
(lp3305
(lp3306
I12
ag47
aa(lp3307
I6
ag25
aasg14
I6
sg15
I8
sg16
(lp3308
(lp3309
I5
ag47
aa(lp3310
I12
ag33
aa(lp3311
I13
ag25
aasbaF0.19900000000000001
aa(lp3312
(imodeler.Context
Context
p3313
(dp3314
g4
g21
sg6
I1
sg7
I2
sg8
F0.059999999999999998
sg9
(lp3315
(lp3316
I9
ag25
aa(lp3317
I11
ag25
aasg14
I6
sg15
I11
sg16
(lp3318
g3309
ag3310
ag3311
asbaF0.014
aa(lp3319
(imodeler.Context
Context
p3320
(dp3321
g4
g5
sg6
I3
sg7
I2
sg8
F0.037999999999999999
sg9
g3305
sg14
I6
sg15
I11
sg16
(lp3322
g3309
ag3310
ag3311
asbaF0.050000000000000003
aa(lp3323
(imodeler.Context
Context
p3324
(dp3325
g4
g21
sg6
I3
sg7
I3
sg8
F0.016
sg9
g3305
sg14
I6
sg15
I1
sg16
(lp3326
g3309
ag3310
ag3311
a(lp3327
I14
ag25
aasbaF0.057000000000000002
aa(lp3328
(imodeler.Context
Context
p3329
(dp3330
g4
g21
sg6
I3
sg7
I2
sg8
F0.13300000000000001
sg9
(lp3331
(lp3332
I6
ag47
aa(lp3333
I6
ag33
aasg14
I6
sg15
I2
sg16
(lp3334
(lp3335
I9
ag47
aa(lp3336
I10
ag25
aa(lp3337
I7
ag12
aasbaF0.097000000000000003
aa(lp3338
(imodeler.Context
Context
p3339
(dp3340
g4
g5
sg6
I5
sg7
I2
sg8
F0.14299999999999999
sg9
(lp3341
(lp3342
I10
ag47
aa(lp3343
I8
ag33
aasg14
I6
sg15
I3
sg16
(lp3344
g3335
ag3336
ag3337
asbaF0.025000000000000001
aa(lp3345
(imodeler.Context
Context
p3346
(dp3347
g4
g21
sg6
I3
sg7
I2
sg8
F0.105
sg9
g3331
sg14
I6
sg15
I6
sg16
(lp3348
g3335
ag3336
ag3337
asbaF0.057000000000000002
aa(lp3349
(imodeler.Context
Context
p3350
(dp3351
g4
g21
sg6
I3
sg7
I2
sg8
F0.065000000000000002
sg9
g3331
sg14
I6
sg15
I10
sg16
(lp3352
g3335
ag3336
ag3337
asbaF0.080000000000000002
aa(lp3353
(imodeler.Context
Context
p3354
(dp3355
g4
g5
sg6
I4
sg7
I2
sg8
F0.045999999999999999
sg9
(lp3356
(lp3357
I12
ag25
aa(lp3358
I7
ag47
aasg14
I6
sg15
I10
sg16
(lp3359
g3335
ag3336
ag3337
asbaF0.083000000000000004
aa(lp3360
(imodeler.Context
Context
p3361
(dp3362
g4
g5
sg6
I5
sg7
I2
sg8
F0.042999999999999997
sg9
g3341
sg14
I6
sg15
I11
sg16
(lp3363
g3335
ag3336
ag3337
asbaF0.041000000000000002
aa(lp3364
(imodeler.Context
Context
p3365
(dp3366
g4
g21
sg6
I3
sg7
I2
sg8
F0.047
sg9
g3331
sg14
I6
sg15
I14
sg16
(lp3367
g3335
ag3336
ag3337
asbaF0.070000000000000007
aa(lp3368
(imodeler.Context
Context
p3369
(dp3370
g4
g5
sg6
I4
sg7
I2
sg8
F0.034000000000000002
sg9
g3356
sg14
I6
sg15
I14
sg16
(lp3371
g3335
ag3336
ag3337
asbaF0.019
aa(lp3372
(imodeler.Context
Context
p3373
(dp3374
g4
g5
sg6
I5
sg7
I2
sg8
F0.032000000000000001
sg9
g3341
sg14
I6
sg15
I15
sg16
(lp3375
g3335
ag3336
ag3337
asbaF0.025000000000000001
aa(lp3376
(imodeler.Context
Context
p3377
(dp3378
g4
g21
sg6
I4
sg7
I2
sg8
F0.01
sg9
g3356
sg14
I6
sg15
I16
sg16
(lp3379
g3335
ag3336
ag3337
asbaF0.045999999999999999
aa(lp3380
(imodeler.Context
Context
p3381
(dp3382
g4
g21
sg6
I5
sg7
I3
sg8
F0.0
sg9
g3341
sg14
I6
sg15
I0
sg16
(lp3383
g3335
ag3336
ag3337
a(lp3384
I8
ag25
aasbaF0.034000000000000002
aa(lp3385
(imodeler.Context
Context
p3386
(dp3387
g4
g5
sg6
I1
sg7
I4
sg8
F0.067000000000000004
sg9
(lp3388
(lp3389
I14
ag33
aa(lp3390
I9
ag12
aasg14
I6
sg15
I1
sg16
(lp3391
(lp3392
I6
ag25
aa(lp3393
I7
ag12
aa(lp3394
I5
ag12
aa(lp3395
I12
ag12
aa(lp3396
I8
ag33
aasbaF0.044999999999999998
aa(lp3397
(imodeler.Context
Context
p3398
(dp3399
g4
g21
sg6
I4
sg7
I4
sg8
F0.111
sg9
(lp3400
(lp3401
I6
ag12
aa(lp3402
I13
ag25
aasg14
I6
sg15
I2
sg16
(lp3403
g3392
ag3393
ag3394
ag3395
ag3396
asbaF0.029999999999999999
aa(lp3404
(imodeler.Context
Context
p3405
(dp3406
g4
g21
sg6
I4
sg7
I4
sg8
F0.083000000000000004
sg9
g3400
sg14
I6
sg15
I4
sg16
(lp3407
g3392
ag3393
ag3394
ag3395
ag3396
asbaF0.029999999999999999
aa(lp3408
(imodeler.Context
Context
p3409
(dp3410
g4
g5
sg6
I4
sg7
I3
sg8
F0.080000000000000002
sg9
(lp3411
(lp3412
I2
ag47
aa(lp3413
I2
ag12
aasg14
I6
sg15
I1
sg16
(lp3414
(lp3415
I14
ag47
aa(lp3416
I3
ag47
aa(lp3417
I12
ag25
aa(lp3418
I2
ag25
aasbaF0.014
aa(lp3419
(imodeler.Context
Context
p3420
(dp3421
g4
g21
sg6
I2
sg7
I2
sg8
F0.13300000000000001
sg9
(lp3422
(lp3423
I14
ag12
aa(lp3424
I12
ag33
aasg14
I6
sg15
I1
sg16
(lp3425
(lp3426
I13
ag47
aa(lp3427
I4
ag12
aa(lp3428
I5
ag47
aasbaF0.059999999999999998
aa(lp3429
(imodeler.Context
Context
p3430
(dp3431
g4
g21
sg6
I1
sg7
I4
sg8
F0.129
sg9
(lp3432
(lp3433
I10
ag12
aa(lp3434
I11
ag25
aasg14
I6
sg15
I2
sg16
(lp3435
g3426
ag3427
ag3428
a(lp3436
I14
ag33
aa(lp3437
I5
ag25
aasbaF0.029999999999999999
aa(lp3438
(imodeler.Context
Context
p3439
(dp3440
g4
g21
sg6
I1
sg7
I4
sg8
F0.059999999999999998
sg9
g3432
sg14
I6
sg15
I8
sg16
(lp3441
g3426
ag3427
ag3428
ag3436
ag3437
asbaF0.029999999999999999
aa(lp3442
(imodeler.Context
Context
p3443
(dp3444
g4
g21
sg6
I0
sg7
I2
sg8
F0.044999999999999998
sg9
(lp3445
(lp3446
I12
ag47
aa(lp3447
I9
ag33
aasg14
I6
sg15
I11
sg16
(lp3448
(lp3449
I10
ag33
aa(lp3450
I13
ag47
aa(lp3451
I3
ag33
aasbaF0.016
aa(lp3452
(imodeler.Context
Context
p3453
(dp3454
g4
g21
sg6
I5
sg7
I4
sg8
F0.017000000000000001
sg9
(lp3455
(lp3456
I13
ag33
aa(lp3457
I2
ag25
aasg14
I6
sg15
I2
sg16
(lp3458
g3449
ag3450
ag3451
a(lp3459
I12
ag12
aa(lp3460
I14
ag12
aasbaF0.074999999999999997
aa(lp3461
(imodeler.Context
Context
p3462
(dp3463
g4
g21
sg6
I5
sg7
I4
sg8
F0.014999999999999999
sg9
g3455
sg14
I6
sg15
I4
sg16
(lp3464
g3449
ag3450
ag3451
ag3459
ag3460
asbaF0.063
aa(lp3465
(imodeler.Context
Context
p3466
(dp3467
g4
g21
sg6
I5
sg7
I4
sg8
F0.014
sg9
g3455
sg14
I6
sg15
I6
sg16
(lp3468
g3449
ag3450
ag3451
ag3459
ag3460
asbaF0.064000000000000001
aa(lp3469
(imodeler.Context
Context
p3470
(dp3471
g4
g5
sg6
I5
sg7
I3
sg8
F0.02
sg9
(lp3472
(lp3473
I14
ag25
aa(lp3474
I8
ag33
aasg14
I6
sg15
I8
sg16
(lp3475
(lp3476
I6
ag47
aa(lp3477
I8
ag12
aa(lp3478
I12
ag47
aa(lp3479
I2
ag47
aasbaF0.035999999999999997
aa(lp3480
(imodeler.Context
Context
p3481
(dp3482
g4
g21
sg6
I4
sg7
I2
sg8
F0.057000000000000002
sg9
(lp3483
(lp3484
I2
ag33
aa(lp3485
I2
ag47
aasg14
I6
sg15
I9
sg16
(lp3486
(lp3487
I6
ag12
aa(lp3488
I9
ag33
aa(lp3489
I12
ag47
aasbaF0.051999999999999998
aa(lp3490
(imodeler.Context
Context
p3491
(dp3492
g4
g21
sg6
I5
sg7
I1
sg8
F0.076999999999999999
sg9
(lp3493
(lp3494
I3
ag33
aa(lp3495
I3
ag12
aasg14
I6
sg15
I0
sg16
(lp3496
sbaF0.028000000000000001
aa(lp3497
(imodeler.Context
Context
p3498
(dp3499
g4
g21
sg6
I4
sg7
I4
sg8
F0.13300000000000001
sg9
(lp3500
(lp3501
I8
ag47
aa(lp3502
I7
ag12
aasg14
I6
sg15
I1
sg16
(lp3503
(lp3504
I4
ag33
aa(lp3505
I6
ag12
aa(lp3506
I11
ag47
aa(lp3507
I11
ag33
aa(lp3508
I12
ag47
aasbaF0.028000000000000001
aa(lp3509
(imodeler.Context
Context
p3510
(dp3511
g4
g21
sg6
I5
sg7
I1
sg8
F0.33300000000000002
sg9
(lp3512
(lp3513
I12
ag33
aa(lp3514
I6
ag33
aasg14
I6
sg15
I0
sg16
(lp3515
sbaF0.035999999999999997
aa(lp3516
(imodeler.Context
Context
p3517
(dp3518
g4
g21
sg6
I5
sg7
I2
sg8
F0.114
sg9
(lp3519
(lp3520
I14
ag25
aa(lp3521
I9
ag47
aasg14
I6
sg15
I3
sg16
(lp3522
(lp3523
I10
ag47
aa(lp3524
I9
ag12
aa(lp3525
I12
ag25
aasbaF0.074999999999999997
aa(lp3526
(imodeler.Context
Context
p3527
(dp3528
g4
g21
sg6
I5
sg7
I2
sg8
F0.072999999999999995
sg9
g3519
sg14
I6
sg15
I5
sg16
(lp3529
g3523
ag3524
ag3525
asbaF0.059999999999999998
aa(lp3530
(imodeler.Context
Context
p3531
(dp3532
g4
g21
sg6
I5
sg7
I2
sg8
F0.052999999999999999
sg9
g3519
sg14
I6
sg15
I7
sg16
(lp3533
g3523
ag3524
ag3525
asbaF0.050000000000000003
aa(lp3534
(imodeler.Context
Context
p3535
(dp3536
g4
g21
sg6
I5
sg7
I3
sg8
F0.037999999999999999
sg9
g3519
sg14
I6
sg15
I2
sg16
(lp3537
g3523
ag3524
ag3525
a(lp3538
I3
ag47
aasbaF0.028000000000000001
aa(lp3539
(imodeler.Context
Context
p3540
(dp3541
g4
g21
sg6
I5
sg7
I3
sg8
F0.032000000000000001
sg9
g3519
sg14
I6
sg15
I4
sg16
(lp3542
g3523
ag3524
ag3525
ag3538
asbaF0.029999999999999999
aa(lp3543
(imodeler.Context
Context
p3544
(dp3545
g4
g21
sg6
I5
sg7
I3
sg8
F0.028000000000000001
sg9
g3519
sg14
I6
sg15
I6
sg16
(lp3546
g3523
ag3524
ag3525
ag3538
asbaF0.028000000000000001
aa(lp3547
(imodeler.Context
Context
p3548
(dp3549
g4
g21
sg6
I5
sg7
I4
sg8
F0.021000000000000001
sg9
g3519
sg14
I6
sg15
I3
sg16
(lp3550
g3523
ag3524
ag3525
ag3538
a(lp3551
I10
ag33
aasbaF0.027
aa(lp3552
(imodeler.Context
Context
p3553
(dp3554
g4
g21
sg6
I5
sg7
I4
sg8
F0.019
sg9
g3519
sg14
I6
sg15
I5
sg16
(lp3555
g3523
ag3524
ag3525
ag3538
ag3551
asbaF0.028000000000000001
aa(lp3556
(imodeler.Context
Context
p3557
(dp3558
g4
g21
sg6
I5
sg7
I4
sg8
F0.017000000000000001
sg9
g3519
sg14
I6
sg15
I7
sg16
(lp3559
g3523
ag3524
ag3525
ag3538
ag3551
asbaF0.025999999999999999
aa(lp3560
(imodeler.Context
Context
p3561
(dp3562
g4
g21
sg6
I3
sg7
I2
sg8
F0.0
sg9
(lp3563
(lp3564
I13
ag12
aa(lp3565
I10
ag47
aasg14
I6
sg15
I0
sg16
(lp3566
(lp3567
I6
ag47
aa(lp3568
I13
ag47
aa(lp3569
I14
ag47
aasbaF0.037999999999999999
aa(lp3570
(imodeler.Context
Context
p3571
(dp3572
g4
g21
sg6
I5
sg7
I2
sg8
F0.0
sg9
(lp3573
(lp3574
I7
ag25
aa(lp3575
I7
ag33
aasg14
I6
sg15
I0
sg16
(lp3576
(lp3577
I9
ag33
aa(lp3578
I11
ag33
aa(lp3579
I14
ag47
aasbaF0.041000000000000002
aa(lp3580
(imodeler.Context
Context
p3581
(dp3582
g4
g21
sg6
I4
sg7
I2
sg8
F0.182
sg9
(lp3583
(lp3584
I13
ag25
aa(lp3585
I6
ag25
aasg14
I6
sg15
I3
sg16
(lp3586
g3577
ag3578
ag3579
asbaF0.02
aa(lp3587
(imodeler.Context
Context
p3588
(dp3589
g4
g21
sg6
I5
sg7
I2
sg8
F0.086999999999999994
sg9
g3573
sg14
I6
sg15
I6
sg16
(lp3590
g3577
ag3578
ag3579
asbaF0.065000000000000002
aa(lp3591
(imodeler.Context
Context
p3592
(dp3593
g4
g21
sg6
I5
sg7
I2
sg8
F0.060999999999999999
sg9
g3573
sg14
I6
sg15
I9
sg16
(lp3594
g3577
ag3578
ag3579
asbaF0.089999999999999997
aa(lp3595
(imodeler.Context
Context
p3596
(dp3597
g4
g21
sg6
I5
sg7
I3
sg8
F0.029999999999999999
sg9
g3573
sg14
I6
sg15
I7
sg16
(lp3598
g3577
ag3578
ag3579
a(lp3599
I3
ag33
aasbaF0.089999999999999997
aa(lp3600
(imodeler.Context
Context
p3601
(dp3602
g4
g21
sg6
I5
sg7
I3
sg8
F0.025999999999999999
sg9
g3573
sg14
I6
sg15
I10
sg16
(lp3603
g3577
ag3578
ag3579
ag3599
asbaF0.089999999999999997
aa(lp3604
(imodeler.Context
Context
p3605
(dp3606
g4
g21
sg6
I0
sg7
I1
sg8
F0.33300000000000002
sg9
(lp3607
(lp3608
I11
ag47
aa(lp3609
I12
ag25
aasg14
I6
sg15
I1
sg16
(lp3610
sbaF0.017999999999999999
aa(lp3611
(imodeler.Context
Context
p3612
(dp3613
g4
g21
sg6
I1
sg7
I3
sg8
F0.028000000000000001
sg9
(lp3614
(lp3615
I7
ag33
aa(lp3616
I12
ag12
aasg14
I6
sg15
I9
sg16
(lp3617
(lp3618
I10
ag25
aa(lp3619
I11
ag33
aa(lp3620
I6
ag33
aa(lp3621
I5
ag12
aasbaF0.010999999999999999
aa(lp3622
(imodeler.Context
Context
p3623
(dp3624
g4
g5
sg6
I2
sg7
I1
sg8
F1.0
sg9
(lp3625
(lp3626
I13
ag47
aa(lp3627
I13
ag12
aasg14
I6
sg15
I0
sg16
(lp3628
sbaF0.30099999999999999
aa(lp3629
(imodeler.Context
Context
p3630
(dp3631
g4
g5
sg6
I5
sg7
I2
sg8
F0.090999999999999998
sg9
(lp3632
(lp3633
I14
ag25
aa(lp3634
I11
ag25
aasg14
I6
sg15
I4
sg16
(lp3635
(lp3636
I5
ag12
aa(lp3637
I11
ag33
aa(lp3638
I7
ag12
aasbaF0.042000000000000003
aa(lp3639
(imodeler.Context
Context
p3640
(dp3641
g4
g5
sg6
I5
sg7
I4
sg8
F0.017999999999999999
sg9
g3632
sg14
I6
sg15
I9
sg16
(lp3642
g3636
ag3637
ag3638
a(lp3643
I7
ag33
aa(lp3644
I9
ag12
aasbaF0.035000000000000003
aa(lp3645
(imodeler.Context
Context
p3646
(dp3647
g4
g21
sg6
I5
sg7
I2
sg8
F0.111
sg9
(lp3648
(lp3649
I7
ag47
aa(lp3650
I14
ag47
aasg14
I6
sg15
I1
sg16
(lp3651
(lp3652
I8
ag33
aa(lp3653
I3
ag12
aa(lp3654
I8
ag25
aasbaF0.029999999999999999
aa(lp3655
(imodeler.Context
Context
p3656
(dp3657
g4
g5
sg6
I5
sg7
I2
sg8
F0.182
sg9
(lp3658
(lp3659
I5
ag47
aa(lp3660
I14
ag12
aasg14
I6
sg15
I2
sg16
(lp3661
(lp3662
I14
ag25
aa(lp3663
I3
ag47
aa(lp3664
I5
ag25
aasbaF0.029999999999999999
aa(lp3665
(imodeler.Context
Context
p3666
(dp3667
g4
g21
sg6
I0
sg7
I2
sg8
F0.20000000000000001
sg9
(lp3668
(lp3669
I4
ag47
aa(lp3670
I12
ag33
aasg14
I6
sg15
I3
sg16
(lp3671
g3662
ag3663
ag3664
asbaF0.028000000000000001
aa(lp3672
(imodeler.Context
Context
p3673
(dp3674
g4
g5
sg6
I1
sg7
I2
sg8
F0.11799999999999999
sg9
(lp3675
(lp3676
I14
ag33
aa(lp3677
I3
ag25
aasg14
I6
sg15
I3
sg16
(lp3678
g3662
ag3663
ag3664
asbaF0.23899999999999999
aa(lp3679
(imodeler.Context
Context
p3680
(dp3681
g4
g5
sg6
I5
sg7
I2
sg8
F0.057000000000000002
sg9
g3658
sg14
I6
sg15
I8
sg16
(lp3682
g3662
ag3663
ag3664
asbaF0.121
aa(lp3683
(imodeler.Context
Context
p3684
(dp3685
g4
g5
sg6
I4
sg7
I3
sg8
F0.021000000000000001
sg9
(lp3686
(lp3687
I10
ag33
aa(lp3688
I3
ag33
aasg14
I6
sg15
I11
sg16
(lp3689
g3662
ag3663
ag3664
a(lp3690
I10
ag47
aasbaF0.019
aa(lp3691
(imodeler.Context
Context
p3692
(dp3693
g4
g5
sg6
I0
sg7
I1
sg8
F0.11799999999999999
sg9
(lp3694
(lp3695
I14
ag33
aa(lp3696
I9
ag25
aasg14
I6
sg15
I1
sg16
(lp3697
sbaF0.17799999999999999
aa(lp3698
(imodeler.Context
Context
p3699
(dp3700
g4
g21
sg6
I3
sg7
I1
sg8
F0.129
sg9
(lp3701
(lp3702
I12
ag33
aa(lp3703
I10
ag25
aasg14
I6
sg15
I3
sg16
(lp3704
sbaF0.048000000000000001
aa(lp3705
(imodeler.Context
Context
p3706
(dp3707
g4
g5
sg6
I0
sg7
I1
sg8
F0.060999999999999999
sg9
g3694
sg14
I6
sg15
I3
sg16
(lp3708
sbaF0.111
aa(lp3709
(imodeler.Context
Context
p3710
(dp3711
g4
g21
sg6
I3
sg7
I1
sg8
F0.085000000000000006
sg9
g3701
sg14
I6
sg15
I5
sg16
(lp3712
sbaF0.048000000000000001
aa(lp3713
(imodeler.Context
Context
p3714
(dp3715
g4
g5
sg6
I0
sg7
I1
sg8
F0.041000000000000002
sg9
g3694
sg14
I6
sg15
I5
sg16
(lp3716
sbaF0.113
aa(lp3717
(imodeler.Context
Context
p3718
(dp3719
g4
g21
sg6
I3
sg7
I1
sg8
F0.063
sg9
g3701
sg14
I6
sg15
I7
sg16
(lp3720
sbaF0.048000000000000001
aa(lp3721
(imodeler.Context
Context
p3722
(dp3723
g4
g5
sg6
I0
sg7
I1
sg8
F0.031
sg9
g3694
sg14
I6
sg15
I7
sg16
(lp3724
sbaF0.113
aa(lp3725
(imodeler.Context
Context
p3726
(dp3727
g4
g5
sg6
I5
sg7
I2
sg8
F0.20000000000000001
sg9
(lp3728
(lp3729
I9
ag47
aa(lp3730
I10
ag33
aasg14
I6
sg15
I3
sg16
(lp3731
(lp3732
I10
ag25
aa(lp3733
I6
ag25
aa(lp3734
I7
ag33
aasbaF0.02
aa(lp3735
(imodeler.Context
Context
p3736
(dp3737
g4
g5
sg6
I5
sg7
I2
sg8
F0.097000000000000003
sg9
g3728
sg14
I6
sg15
I7
sg16
(lp3738
g3732
ag3733
ag3734
asbaF0.025000000000000001
aa(lp3739
(imodeler.Context
Context
p3740
(dp3741
g4
g5
sg6
I1
sg7
I2
sg8
F0.055
sg9
(lp3742
(lp3743
I10
ag47
aa(lp3744
I2
ag33
aasg14
I6
sg15
I13
sg16
(lp3745
g3732
ag3733
ag3734
asbaF0.01
aa(lp3746
(imodeler.Context
Context
p3747
(dp3748
g4
g21
sg6
I2
sg7
I2
sg8
F0.121
sg9
(lp3749
(lp3750
I6
ag25
aa(lp3751
I6
ag47
aasg14
I6
sg15
I2
sg16
(lp3752
(lp3753
I13
ag12
aa(lp3754
I14
ag12
aa(lp3755
I8
ag47
aasbaF0.057000000000000002
aa(lp3756
(imodeler.Context
Context
p3757
(dp3758
g4
g21
sg6
I2
sg7
I2
sg8
F0.074999999999999997
sg9
g3749
sg14
I6
sg15
I4
sg16
(lp3759
g3753
ag3754
ag3755
asbaF0.057000000000000002
aa(lp3760
(imodeler.Context
Context
p3761
(dp3762
g4
g21
sg6
I2
sg7
I2
sg8
F0.055
sg9
g3749
sg14
I6
sg15
I6
sg16
(lp3763
g3753
ag3754
ag3755
asbaF0.057000000000000002
aa(lp3764
(imodeler.Context
Context
p3765
(dp3766
g4
g21
sg6
I2
sg7
I3
sg8
F0.033000000000000002
sg9
g3749
sg14
I6
sg15
I3
sg16
(lp3767
g3753
ag3754
ag3755
a(lp3768
I2
ag47
aasbaF0.048000000000000001
aa(lp3769
(imodeler.Context
Context
p3770
(dp3771
g4
g21
sg6
I2
sg7
I3
sg8
F0.028000000000000001
sg9
g3749
sg14
I6
sg15
I5
sg16
(lp3772
g3753
ag3754
ag3755
ag3768
asbaF0.036999999999999998
aa(lp3773
(imodeler.Context
Context
p3774
(dp3775
g4
g21
sg6
I2
sg7
I3
sg8
F0.025000000000000001
sg9
g3749
sg14
I6
sg15
I7
sg16
(lp3776
g3753
ag3754
ag3755
ag3768
asbaF0.036999999999999998
aa(lp3777
(imodeler.Context
Context
p3778
(dp3779
g4
g21
sg6
I2
sg7
I4
sg8
F0.021000000000000001
sg9
g3749
sg14
I6
sg15
I2
sg16
(lp3780
g3753
ag3754
ag3755
ag3768
a(lp3781
I5
ag25
aasbaF0.17899999999999999
aa(lp3782
(imodeler.Context
Context
p3783
(dp3784
g4
g21
sg6
I2
sg7
I4
sg8
F0.017000000000000001
sg9
g3749
sg14
I6
sg15
I6
sg16
(lp3785
g3753
ag3754
ag3755
ag3768
ag3781
asbaF0.17899999999999999
aa(lp3786
(imodeler.Context
Context
p3787
(dp3788
g4
g5
sg6
I2
sg7
I1
sg8
F0.38500000000000001
sg9
(lp3789
(lp3790
I11
ag47
aa(lp3791
I11
ag12
aasg14
I6
sg15
I1
sg16
(lp3792
sbaF0.25
aa(lp3793
(imodeler.Context
Context
p3794
(dp3795
g4
g5
sg6
I4
sg7
I1
sg8
F0.21099999999999999
sg9
(lp3796
(lp3797
I13
ag12
aa(lp3798
I13
ag47
aasg14
I6
sg15
I2
sg16
(lp3799
sbaF0.34999999999999998
aa(lp3800
(imodeler.Context
Context
p3801
(dp3802
g4
g21
sg6
I5
sg7
I1
sg8
F0.222
sg9
(lp3803
(lp3804
I14
ag12
aa(lp3805
I4
ag25
aasg14
I6
sg15
I3
sg16
(lp3806
sbaF0.063
aa(lp3807
(imodeler.Context
Context
p3808
(dp3809
g4
g5
sg6
I0
sg7
I1
sg8
F0.129
sg9
(lp3810
(lp3811
I7
ag12
aa(lp3812
I7
ag33
aasg14
I6
sg15
I3
sg16
(lp3813
sbaF0.089999999999999997
aa(lp3814
(imodeler.Context
Context
p3815
(dp3816
g4
g5
sg6
I2
sg7
I1
sg8
F0.108
sg9
g3789
sg14
I6
sg15
I4
sg16
(lp3817
sbaF0.28499999999999998
aa(lp3818
(imodeler.Context
Context
p3819
(dp3820
g4
g5
sg6
I4
sg7
I1
sg8
F0.092999999999999999
sg9
g3796
sg14
I6
sg15
I5
sg16
(lp3821
sbaF0.34999999999999998
aa(lp3822
(imodeler.Context
Context
p3823
(dp3824
g4
g21
sg6
I5
sg7
I1
sg8
F0.11799999999999999
sg9
g3803
sg14
I6
sg15
I6
sg16
(lp3825
sbaF0.040000000000000001
aa(lp3826
(imodeler.Context
Context
p3827
(dp3828
g4
g5
sg6
I4
sg7
I1
sg8
F0.059999999999999998
sg9
g3796
sg14
I6
sg15
I8
sg16
(lp3829
sbaF0.255
aa(lp3830
(imodeler.Context
Context
p3831
(dp3832
g4
g21
sg6
I5
sg7
I1
sg8
F0.080000000000000002
sg9
g3803
sg14
I6
sg15
I9
sg16
(lp3833
sbaF0.040000000000000001
aa(lp3834
(imodeler.Context
Context
p3835
(dp3836
g4
g5
sg6
I0
sg7
I1
sg8
F0.050999999999999997
sg9
g3810
sg14
I6
sg15
I9
sg16
(lp3837
sbaF0.074999999999999997
aa(lp3838
(imodeler.Context
Context
p3839
(dp3840
g4
g5
sg6
I2
sg7
I1
sg8
F0.047
sg9
g3789
sg14
I6
sg15
I10
sg16
(lp3841
sbaF0.27000000000000002
aa(lp3842
(imodeler.Context
Context
p3843
(dp3844
g4
g5
sg6
I4
sg7
I1
sg8
F0.043999999999999997
sg9
g3796
sg14
I6
sg15
I11
sg16
(lp3845
sbaF0.255
aa(lp3846
(imodeler.Context
Context
p3847
(dp3848
g4
g21
sg6
I5
sg7
I1
sg8
F0.060999999999999999
sg9
g3803
sg14
I6
sg15
I12
sg16
(lp3849
sbaF0.040000000000000001
aa(lp3850
(imodeler.Context
Context
p3851
(dp3852
g4
g21
sg6
I0
sg7
I1
sg8
F0.039
sg9
g3810
sg14
I6
sg15
I12
sg16
(lp3853
sbaF0.055
aa(lp3854
(imodeler.Context
Context
p3855
(dp3856
g4
g21
sg6
I2
sg7
I1
sg8
F0.019
sg9
g3789
sg14
I6
sg15
I12
sg16
(lp3857
sbaF0.14499999999999999
aa(lp3858
(imodeler.Context
Context
p3859
(dp3860
g4
g5
sg6
I0
sg7
I2
sg8
F0.017000000000000001
sg9
g3810
sg14
I6
sg15
I1
sg16
(lp3861
(lp3862
I10
ag47
aa(lp3863
I10
ag33
aa(lp3864
I3
ag12
aasbaF0.055
aa(lp3865
(imodeler.Context
Context
p3866
(dp3867
g4
g5
sg6
I4
sg7
I2
sg8
F0.031
sg9
g3796
sg14
I6
sg15
I3
sg16
(lp3868
g3862
ag3863
ag3864
asbaF0.28499999999999998
aa(lp3869
(imodeler.Context
Context
p3870
(dp3871
g4
g21
sg6
I5
sg7
I2
sg8
F0.043999999999999997
sg9
g3803
sg14
I6
sg15
I4
sg16
(lp3872
g3862
ag3863
ag3864
asbaF0.047
aa(lp3873
(imodeler.Context
Context
p3874
(dp3875
g4
g21
sg6
I5
sg7
I2
sg8
F0.033000000000000002
sg9
g3803
sg14
I6
sg15
I10
sg16
(lp3876
g3862
ag3863
ag3864
asbaF0.040000000000000001
aa(lp3877
(imodeler.Context
Context
p3878
(dp3879
g4
g21
sg6
I2
sg7
I3
sg8
F0.021999999999999999
sg9
g3789
sg14
I6
sg15
I9
sg16
(lp3880
g3862
ag3863
ag3864
a(lp3881
I14
ag25
aasbaF0.25
aa(lp3882
(imodeler.Context
Context
p3883
(dp3884
g4
g21
sg6
I5
sg7
I1
sg8
F0.25
sg9
(lp3885
(lp3886
I12
ag25
aa(lp3887
I9
ag33
aasg14
I6
sg15
I0
sg16
(lp3888
sbaF0.042000000000000003
aa(lp3889
(imodeler.Context
Context
p3890
(dp3891
g4
g21
sg6
I0
sg7
I1
sg8
F0.076999999999999999
sg9
(lp3892
(lp3893
I7
ag12
aa(lp3894
I13
ag33
aasg14
I6
sg15
I0
sg16
(lp3895
sbaF0.021999999999999999
aa(lp3896
(imodeler.Context
Context
p3897
(dp3898
g4
g5
sg6
I5
sg7
I1
sg8
F0.5
sg9
(lp3899
(lp3900
I12
ag12
aa(lp3901
I12
ag25
aasg14
I6
sg15
I1
sg16
(lp3902
sbaF0.245
aa(lp3903
(imodeler.Context
Context
p3904
(dp3905
g4
g21
sg6
I0
sg7
I1
sg8
F0.36799999999999999
sg9
(lp3906
(lp3907
I3
ag47
aa(lp3908
I14
ag12
aasg14
I6
sg15
I2
sg16
(lp3909
sbaF0.035000000000000003
aa(lp3910
(imodeler.Context
Context
p3911
(dp3912
g4
g21
sg6
I1
sg7
I1
sg8
F0.26900000000000002
sg9
(lp3913
(lp3914
I11
ag33
aa(lp3915
I4
ag12
aasg14
I6
sg15
I2
sg16
(lp3916
sbaF0.014999999999999999
aa(lp3917
(imodeler.Context
Context
p3918
(dp3919
g4
g5
sg6
I5
sg7
I1
sg8
F0.053999999999999999
sg9
g3899
sg14
I6
sg15
I3
sg16
(lp3920
sbaF0.245
aa(lp3921
(imodeler.Context
Context
p3922
(dp3923
g4
g21
sg6
I0
sg7
I1
sg8
F0.092999999999999999
sg9
g3906
sg14
I6
sg15
I4
sg16
(lp3924
sbaF0.017000000000000001
aa(lp3925
(imodeler.Context
Context
p3926
(dp3927
g4
g21
sg6
I1
sg7
I1
sg8
F0.085000000000000006
sg9
g3913
sg14
I6
sg15
I4
sg16
(lp3928
sbaF0.017999999999999999
aa(lp3929
(imodeler.Context
Context
p3930
(dp3931
g4
g5
sg6
I5
sg7
I1
sg8
F0.035000000000000003
sg9
g3899
sg14
I6
sg15
I5
sg16
(lp3932
sbaF0.245
aa(lp3933
(imodeler.Context
Context
p3934
(dp3935
g4
g21
sg6
I0
sg7
I1
sg8
F0.063
sg9
g3906
sg14
I6
sg15
I6
sg16
(lp3936
sbaF0.017000000000000001
aa(lp3937
(imodeler.Context
Context
p3938
(dp3939
g4
g21
sg6
I1
sg7
I1
sg8
F0.059999999999999998
sg9
g3913
sg14
I6
sg15
I6
sg16
(lp3940
sbaF0.017999999999999999
aa(lp3941
(imodeler.Context
Context
p3942
(dp3943
g4
g5
sg6
I5
sg7
I1
sg8
F0.025999999999999999
sg9
g3899
sg14
I6
sg15
I7
sg16
(lp3944
sbaF0.245
aa(lp3945
(imodeler.Context
Context
p3946
(dp3947
g4
g21
sg6
I0
sg7
I2
sg8
F0.034000000000000002
sg9
g3906
sg14
I6
sg15
I3
sg16
(lp3948
(lp3949
I5
ag33
aa(lp3950
I8
ag25
aa(lp3951
I8
ag33
aasbaF0.021999999999999999
aa(lp3952
(imodeler.Context
Context
p3953
(dp3954
g4
g21
sg6
I1
sg7
I2
sg8
F0.033000000000000002
sg9
g3913
sg14
I6
sg15
I3
sg16
(lp3955
g3949
ag3950
ag3951
asbaF0.058000000000000003
aa(lp3956
(imodeler.Context
Context
p3957
(dp3958
g4
g21
sg6
I1
sg7
I2
sg8
F0.028000000000000001
sg9
g3913
sg14
I6
sg15
I5
sg16
(lp3959
g3949
ag3950
ag3951
asbaF0.035000000000000003
aa(lp3960
(imodeler.Context
Context
p3961
(dp3962
g4
g5
sg6
I4
sg7
I2
sg8
F0.014
sg9
(lp3963
(lp3964
I9
ag47
aa(lp3965
I9
ag12
aasg14
I6
sg15
I5
sg16
(lp3966
g3949
ag3950
ag3951
asbaF0.16
aa(lp3967
(imodeler.Context
Context
p3968
(dp3969
g4
g5
sg6
I4
sg7
I1
sg8
F0.38500000000000001
sg9
(lp3970
(lp3971
I12
ag47
aa(lp3972
I12
ag12
aasg14
I6
sg15
I1
sg16
(lp3973
sbaF0.19
aa(lp3974
(imodeler.Context
Context
p3975
(dp3976
g4
g21
sg6
I0
sg7
I1
sg8
F0.16700000000000001
sg9
(lp3977
(lp3978
I13
ag33
aa(lp3979
I4
ag25
aasg14
I6
sg15
I2
sg16
(lp3980
sbaF0.017000000000000001
aa(lp3981
(imodeler.Context
Context
p3982
(dp3983
g4
g21
sg6
I1
sg7
I1
sg8
F0.14299999999999999
sg9
(lp3984
(lp3985
I9
ag25
aa(lp3986
I5
ag47
aasg14
I6
sg15
I2
sg16
(lp3987
sbaF0.01
aa(lp3988
(imodeler.Context
Context
p3989
(dp3990
g4
g5
sg6
I3
sg7
I1
sg8
F0.067000000000000004
sg9
(lp3991
(lp3992
I10
ag33
aa(lp3993
I10
ag25
aasg14
I6
sg15
I2
sg16
(lp3994
sbaF0.20300000000000001
aa(lp3995
(imodeler.Context
Context
p3996
(dp3997
g4
g5
sg6
I3
sg7
I1
sg8
F0.040000000000000001
sg9
g3991
sg14
I6
sg15
I4
sg16
(lp3998
sbaF0.20300000000000001
aa(lp3999
(imodeler.Context
Context
p4000
(dp4001
g4
g5
sg6
I3
sg7
I1
sg8
F0.029000000000000001
sg9
g3991
sg14
I6
sg15
I6
sg16
(lp4002
sbaF0.27600000000000002
aa(lp4003
(imodeler.Context
Context
p4004
(dp4005
g4
g5
sg6
I4
sg7
I2
sg8
F0.029000000000000001
sg9
g3970
sg14
I6
sg15
I12
sg16
(lp4006
(lp4007
I13
ag47
aa(lp4008
I10
ag47
aa(lp4009
I3
ag47
aasbaF0.16300000000000001
aa(lp4010
(imodeler.Context
Context
p4011
(dp4012
g4
g5
sg6
I0
sg7
I2
sg8
F0.027
sg9
g3977
sg14
I6
sg15
I14
sg16
(lp4013
g4007
ag4008
ag4009
asbaF0.021999999999999999
aa(lp4014
(imodeler.Context
Context
p4015
(dp4016
g4
g21
sg6
I1
sg7
I2
sg8
F0.034000000000000002
sg9
g3984
sg14
I6
sg15
I15
sg16
(lp4017
g4007
ag4008
ag4009
asbaF0.02
aa(lp4018
(imodeler.Context
Context
p4019
(dp4020
g4
g5
sg6
I3
sg7
I2
sg8
F0.025000000000000001
sg9
g3991
sg14
I6
sg15
I15
sg16
(lp4021
g4007
ag4008
ag4009
asbaF0.056000000000000001
aa(lp4022
(imodeler.Context
Context
p4023
(dp4024
g4
g21
sg6
I1
sg7
I4
sg8
F0.014
sg9
g3984
sg14
I6
sg15
I10
sg16
(lp4025
g4007
ag4008
ag4009
a(lp4026
I4
ag12
aa(lp4027
I7
ag33
aasbaF0.012
aa(lp4028
(imodeler.Context
Context
p4029
(dp4030
g4
g21
sg6
I4
sg7
I2
sg8
F0.107
sg9
(lp4031
(lp4032
I3
ag33
aa(lp4033
I12
ag33
aasg14
I6
sg15
I6
sg16
(lp4034
(lp4035
I7
ag12
aa(lp4036
I11
ag12
aa(lp4037
I7
ag47
aasbaF0.01
aa(lp4038
(imodeler.Context
Context
p4039
(dp4040
g4
g5
sg6
I1
sg7
I3
sg8
F0.029999999999999999
sg9
(lp4041
(lp4042
I11
ag33
aa(lp4043
I2
ag12
aasg14
I6
sg15
I12
sg16
(lp4044
g4035
ag4036
ag4037
a(lp4045
I12
ag25
aasbaF0.087999999999999995
aa(lp4046
(imodeler.Context
Context
p4047
(dp4048
g4
g5
sg6
I5
sg7
I3
sg8
F0.028000000000000001
sg9
(lp4049
(lp4050
I7
ag25
aa(lp4051
I11
ag25
aasg14
I6
sg15
I14
sg16
(lp4052
g4035
ag4036
ag4037
ag4045
asbaF0.088999999999999996
aa(lp4053
(imodeler.Context
Context
p4054
(dp4055
g4
g5
sg6
I0
sg7
I3
sg8
F0.027
sg9
(lp4056
(lp4057
I2
ag47
aa(lp4058
I11
ag47
aasg14
I6
sg15
I15
sg16
(lp4059
g4035
ag4036
ag4037
ag4045
asbaF0.023
aa(lp4060
(imodeler.Context
Context
p4061
(dp4062
g4
g21
sg6
I5
sg7
I3
sg8
F0.0080000000000000002
sg9
g4049
sg14
I6
sg15
I16
sg16
(lp4063
g4035
ag4036
ag4037
ag4045
asbaF0.079000000000000001
aa(lp4064
(imodeler.Context
Context
p4065
(dp4066
g4
g5
sg6
I0
sg7
I4
sg8
F0.017999999999999999
sg9
g4056
sg14
I6
sg15
I12
sg16
(lp4067
g4035
ag4036
ag4037
ag4045
a(lp4068
I5
ag33
aasbaF0.033000000000000002
aa(lp4069
(imodeler.Context
Context
p4070
(dp4071
g4
g5
sg6
I1
sg7
I4
sg8
F0.017999999999999999
sg9
g4041
sg14
I6
sg15
I13
sg16
(lp4072
g4035
ag4036
ag4037
ag4045
ag4068
asbaF0.01
aa(lp4073
(imodeler.Context
Context
p4074
(dp4075
g4
g5
sg6
I4
sg7
I4
sg8
F0.017000000000000001
sg9
g4031
sg14
I6
sg15
I14
sg16
(lp4076
g4035
ag4036
ag4037
ag4045
ag4068
asbaF0.056000000000000001
aa(lp4077
(imodeler.Context
Context
p4078
(dp4079
g4
g5
sg6
I5
sg7
I4
sg8
F0.017000000000000001
sg9
g4049
sg14
I6
sg15
I15
sg16
(lp4080
g4035
ag4036
ag4037
ag4045
ag4068
asbaF0.11
aa(lp4081
(imodeler.Context
Context
p4082
(dp4083
g4
g5
sg6
I1
sg7
I1
sg8
F0.375
sg9
(lp4084
(lp4085
I9
ag25
aa(lp4086
I14
ag12
aasg14
I6
sg15
I1
sg16
(lp4087
sbaF0.070000000000000007
aa(lp4088
(imodeler.Context
Context
p4089
(dp4090
g4
g5
sg6
I0
sg7
I1
sg8
F0.16700000000000001
sg9
(lp4091
(lp4092
I5
ag12
aa(lp4093
I5
ag47
aasg14
I6
sg15
I2
sg16
(lp4094
sbaF0.059999999999999998
aa(lp4095
(imodeler.Context
Context
p4096
(dp4097
g4
g5
sg6
I1
sg7
I1
sg8
F0.125
sg9
g4084
sg14
I6
sg15
I3
sg16
(lp4098
sbaF0.059999999999999998
aa(lp4099
(imodeler.Context
Context
p4100
(dp4101
g4
g5
sg6
I2
sg7
I1
sg8
F0.13300000000000001
sg9
(lp4102
(lp4103
I9
ag33
aa(lp4104
I9
ag12
aasg14
I6
sg15
I1
sg16
(lp4105
sbaF0.16
aa(lp4106
(imodeler.Context
Context
p4107
(dp4108
g4
g21
sg6
I0
sg7
I4
sg8
F0.088999999999999996
sg9
(lp4109
(lp4110
I14
ag25
aa(lp4111
I6
ag33
aasg14
I6
sg15
I4
sg16
(lp4112
(lp4113
I11
ag25
aa(lp4114
I13
ag47
aa(lp4115
I10
ag33
aa(lp4116
I13
ag12
aa(lp4117
I13
ag33
aasbaF0.025000000000000001
aa(lp4118
(imodeler.Context
Context
p4119
(dp4120
g4
g5
sg6
I0
sg7
I3
sg8
F0.085000000000000006
sg9
(lp4121
(lp4122
I11
ag33
aa(lp4123
I13
ag33
aasg14
I6
sg15
I3
sg16
(lp4124
(lp4125
I11
ag12
aa(lp4126
I8
ag47
aa(lp4127
I3
ag33
aa(lp4128
I10
ag33
aasbaF0.028000000000000001
aa(lp4129
(imodeler.Context
Context
p4130
(dp4131
g4
g21
sg6
I0
sg7
I3
sg8
F0.129
sg9
(lp4132
(lp4133
I12
ag33
aa(lp4134
I5
ag33
aasg14
I6
sg15
I3
sg16
(lp4135
(lp4136
I6
ag12
aa(lp4137
I9
ag25
aa(lp4138
I13
ag25
aa(lp4139
I6
ag47
aasbaF0.014999999999999999
aa(lp4140
(imodeler.Context
Context
p4141
(dp4142
g4
g21
sg6
I0
sg7
I3
sg8
F0.092999999999999999
sg9
g4132
sg14
I6
sg15
I5
sg16
(lp4143
g4136
ag4137
ag4138
ag4139
asbaF0.02
aa(lp4144
(imodeler.Context
Context
p4145
(dp4146
g4
g5
sg6
I4
sg7
I2
sg8
F0.121
sg9
(lp4147
(lp4148
I10
ag12
aa(lp4149
I9
ag12
aasg14
I6
sg15
I4
sg16
(lp4150
(lp4151
I4
ag12
aa(lp4152
I9
ag33
aa(lp4153
I13
ag12
aasbaF0.082000000000000003
aa(lp4154
(imodeler.Context
Context
p4155
(dp4156
g4
g21
sg6
I5
sg7
I1
sg8
F0.14299999999999999
sg9
(lp4157
(lp4158
I7
ag33
aa(lp4159
I12
ag33
aasg14
I6
sg15
I0
sg16
(lp4160
sbaF0.049000000000000002
aa(lp4161
(imodeler.Context
Context
p4162
(dp4163
g4
g21
sg6
I0
sg7
I4
sg8
F0.105
sg9
(lp4164
(lp4165
I5
ag12
aa(lp4166
I11
ag12
aasg14
I6
sg15
I3
sg16
(lp4167
(lp4168
I2
ag47
aa(lp4169
I3
ag47
aa(lp4170
I2
ag33
aa(lp4171
I7
ag33
aa(lp4172
I14
ag47
aasbaF0.029999999999999999
aa(lp4173
(imodeler.Context
Context
p4174
(dp4175
g4
g21
sg6
I0
sg7
I4
sg8
F0.080000000000000002
sg9
g4164
sg14
I6
sg15
I5
sg16
(lp4176
g4168
ag4169
ag4170
ag4171
ag4172
asbaF0.02
aa(lp4177
(imodeler.Context
Context
p4178
(dp4179
g4
g21
sg6
I2
sg7
I1
sg8
F0.214
sg9
(lp4180
(lp4181
I10
ag12
aa(lp4182
I12
ag12
aasg14
I6
sg15
I1
sg16
(lp4183
sbaF0.070000000000000007
aa(lp4184
(imodeler.Context
Context
p4185
(dp4186
g4
g21
sg6
I4
sg7
I2
sg8
F0.105
sg9
(lp4187
(lp4188
I10
ag25
aa(lp4189
I11
ag33
aasg14
I6
sg15
I5
sg16
(lp4190
(lp4191
I5
ag33
aa(lp4192
I9
ag47
aa(lp4193
I12
ag47
aasbaF0.019
aa(lp4194
(imodeler.Context
Context
p4195
(dp4196
g4
g21
sg6
I4
sg7
I2
sg8
F0.057000000000000002
sg9
g4187
sg14
I6
sg15
I11
sg16
(lp4197
g4191
ag4192
ag4193
asbaF0.017000000000000001
aa(lp4198
(imodeler.Context
Context
p4199
(dp4200
g4
g5
sg6
I2
sg7
I3
sg8
F0.02
sg9
g4180
sg14
I6
sg15
I11
sg16
(lp4201
g4191
ag4192
ag4193
a(lp4202
I14
ag33
aasbaF0.24199999999999999
aa(lp4203
(imodeler.Context
Context
p4204
(dp4205
g4
g5
sg6
I2
sg7
I4
sg8
F0.02
sg9
g4180
sg14
I6
sg15
I12
sg16
(lp4206
g4191
ag4192
ag4193
ag4202
a(lp4207
I11
ag12
aasbaF0.108
aa(lp4208
(imodeler.Context
Context
p4209
(dp4210
g4
g5
sg6
I1
sg7
I4
sg8
F0.017999999999999999
sg9
(lp4211
(lp4212
I14
ag25
aa(lp4213
I12
ag25
aasg14
I6
sg15
I15
sg16
(lp4214
g4191
ag4192
ag4193
ag4202
ag4207
asbaF0.044999999999999998
aa(lp4215
(imodeler.Context
Context
p4216
(dp4217
g4
g21
sg6
I2
sg7
I4
sg8
F0.017999999999999999
sg9
g4180
sg14
I6
sg15
I16
sg16
(lp4218
g4191
ag4192
ag4193
ag4202
ag4207
asbaF0.19500000000000001
aa(lp4219
(imodeler.Context
Context
p4220
(dp4221
g4
g21
sg6
I5
sg7
I2
sg8
F0.14799999999999999
sg9
(lp4222
(lp4223
I11
ag47
aa(lp4224
I7
ag33
aasg14
I6
sg15
I2
sg16
(lp4225
(lp4226
I13
ag33
aa(lp4227
I12
ag12
aa(lp4228
I11
ag12
aasbaF0.043999999999999997
aa(lp4229
(imodeler.Context
Context
p4230
(dp4231
g4
g21
sg6
I5
sg7
I2
sg8
F0.10299999999999999
sg9
g4222
sg14
I6
sg15
I4
sg16
(lp4232
g4226
ag4227
ag4228
asbaF0.050000000000000003
aa(lp4233
(imodeler.Context
Context
p4234
(dp4235
g4
g21
sg6
I5
sg7
I1
sg8
F0.5
sg9
(lp4236
(lp4237
I12
ag33
aa(lp4238
I6
ag25
aasg14
I6
sg15
I1
sg16
(lp4239
sbaF0.052999999999999999
aa(lp4240
(imodeler.Context
Context
p4241
(dp4242
g4
g21
sg6
I0
sg7
I3
sg8
F0.027
sg9
(lp4243
(lp4244
I13
ag25
aa(lp4245
I2
ag33
aasg14
I6
sg15
I9
sg16
(lp4246
(lp4247
I9
ag25
aa(lp4248
I3
ag25
aa(lp4249
I12
ag47
aa(lp4250
I9
ag33
aasbaF0.014
aa(lp4251
(imodeler.Context
Context
p4252
(dp4253
g4
g21
sg6
I0
sg7
I4
sg8
F0.017000000000000001
sg9
g4243
sg14
I6
sg15
I10
sg16
(lp4254
g4247
ag4248
ag4249
ag4250
a(lp4255
I7
ag25
aasbaF0.012999999999999999
aa(lp4256
(imodeler.Context
Context
p4257
(dp4258
g4
g21
sg6
I2
sg7
I1
sg8
F0.27300000000000002
sg9
(lp4259
(lp4260
I13
ag33
aa(lp4261
I14
ag47
aasg14
I6
sg15
I1
sg16
(lp4262
sbaF0.070000000000000007
aa(lp4263
(imodeler.Context
Context
p4264
(dp4265
g4
g5
sg6
I0
sg7
I1
sg8
F0.27800000000000002
sg9
(lp4266
(lp4267
I12
ag33
aa(lp4268
I13
ag47
aasg14
I6
sg15
I1
sg16
(lp4269
sbaF0.062
aa(lp4270
(imodeler.Context
Context
p4271
(dp4272
g4
g21
sg6
I1
sg7
I1
sg8
F0.20000000000000001
sg9
(lp4273
(lp4274
I8
ag47
aa(lp4275
I14
ag12
aasg14
I6
sg15
I2
sg16
(lp4276
sbaF0.033000000000000002
aa(lp4277
(imodeler.Context
Context
p4278
(dp4279
g4
g21
sg6
I5
sg7
I1
sg8
F0.13300000000000001
sg9
(lp4280
(lp4281
I14
ag33
aa(lp4282
I2
ag47
aasg14
I6
sg15
I2
sg16
(lp4283
sbaF0.044999999999999998
aa(lp4284
(imodeler.Context
Context
p4285
(dp4286
g4
g21
sg6
I5
sg7
I1
sg8
F0.080000000000000002
sg9
g4280
sg14
I6
sg15
I4
sg16
(lp4287
sbaF0.044999999999999998
aa(lp4288
(imodeler.Context
Context
p4289
(dp4290
g4
g21
sg6
I5
sg7
I1
sg8
F0.057000000000000002
sg9
g4280
sg14
I6
sg15
I6
sg16
(lp4291
sbaF0.044999999999999998
aa(lp4292
(imodeler.Context
Context
p4293
(dp4294
g4
g5
sg6
I5
sg7
I3
sg8
F0.076999999999999999
sg9
(lp4295
(lp4296
I14
ag47
aa(lp4297
I7
ag12
aasg14
I6
sg15
I1
sg16
(lp4298
(lp4299
I8
ag25
aa(lp4300
I8
ag47
aa(lp4301
I10
ag47
aa(lp4302
I14
ag25
aasbaF0.035000000000000003
aa(lp4303
(imodeler.Context
Context
p4304
(dp4305
g4
g21
sg6
I4
sg7
I3
sg8
F0.083000000000000004
sg9
(lp4306
(lp4307
I11
ag12
aa(lp4308
I2
ag33
aasg14
I6
sg15
I5
sg16
(lp4309
g4299
ag4300
ag4301
ag4302
asbaF0.014999999999999999
aa(lp4310
(imodeler.Context
Context
p4311
(dp4312
g4
g5
sg6
I2
sg7
I2
sg8
F0.076999999999999999
sg9
(lp4313
(lp4314
I13
ag33
aa(lp4315
I3
ag25
aasg14
I6
sg15
I2
sg16
(lp4316
(lp4317
I7
ag47
aa(lp4318
I5
ag25
aa(lp4319
I13
ag25
aasbaF0.073999999999999996
aa(lp4320
(imodeler.Context
Context
p4321
(dp4322
g4
g21
sg6
I1
sg7
I3
sg8
F0.129
sg9
(lp4323
(lp4324
I8
ag25
aa(lp4325
I11
ag33
aasg14
I6
sg15
I3
sg16
(lp4326
(lp4327
I12
ag47
aa(lp4328
I9
ag47
aa(lp4329
I4
ag33
aa(lp4330
I14
ag47
aasbaF0.02
aa(lp4331
(imodeler.Context
Context
p4332
(dp4333
g4
g5
sg6
I3
sg7
I2
sg8
F0.108
sg9
(lp4334
(lp4335
I7
ag25
aa(lp4336
I7
ag47
aasg14
I6
sg15
I4
sg16
(lp4337
(lp4338
I7
ag33
aa(lp4339
I13
ag25
aa(lp4340
I6
ag47
aasbaF0.14499999999999999
aa(lp4341
(imodeler.Context
Context
p4342
(dp4343
g4
g5
sg6
I1
sg7
I2
sg8
F0.082000000000000003
sg9
(lp4344
(lp4345
I12
ag47
aa(lp4346
I13
ag12
aasg14
I6
sg15
I6
sg16
(lp4347
g4338
ag4339
ag4340
asbaF0.23200000000000001
aa(lp4348
(imodeler.Context
Context
p4349
(dp4350
g4
g5
sg6
I1
sg7
I2
sg8
F0.16
sg9
(lp4351
(lp4352
I7
ag12
aa(lp4353
I13
ag25
aasg14
I6
sg15
I2
sg16
(lp4354
(lp4355
I13
ag33
aa(lp4356
I11
ag25
aa(lp4357
I14
ag33
aasbaF0.025000000000000001
aa(lp4358
(imodeler.Context
Context
p4359
(dp4360
g4
g5
sg6
I3
sg7
I2
sg8
F0.182
sg9
(lp4361
(lp4362
I2
ag47
aa(lp4363
I13
ag12
aasg14
I6
sg15
I3
sg16
(lp4364
g4355
ag4356
ag4357
asbaF0.02
aa(lp4365
(imodeler.Context
Context
p4366
(dp4367
g4
g5
sg6
I5
sg7
I2
sg8
F0.122
sg9
(lp4368
(lp4369
I12
ag47
aa(lp4370
I11
ag47
aasg14
I6
sg15
I5
sg16
(lp4371
g4355
ag4356
ag4357
asbaF0.059999999999999998
aa(lp4372
(imodeler.Context
Context
p4373
(dp4374
g4
g5
sg6
I5
sg7
I2
sg8
F0.052999999999999999
sg9
g4368
sg14
I6
sg15
I13
sg16
(lp4375
g4355
ag4356
ag4357
asbaF0.10000000000000001
aa(lp4376
(imodeler.Context
Context
p4377
(dp4378
g4
g5
sg6
I1
sg7
I2
sg8
F0.050000000000000003
sg9
g4351
sg14
I6
sg15
I14
sg16
(lp4379
g4355
ag4356
ag4357
asbaF0.034000000000000002
aa(lp4380
(imodeler.Context
Context
p4381
(dp4382
g4
g21
sg6
I5
sg7
I2
sg8
F0.028000000000000001
sg9
g4368
sg14
I6
sg15
I16
sg16
(lp4383
g4355
ag4356
ag4357
asbaF0.14199999999999999
aa(lp4384
(imodeler.Context
Context
p4385
(dp4386
g4
g5
sg6
I3
sg7
I3
sg8
F0.025999999999999999
sg9
g4361
sg14
I6
sg15
I12
sg16
(lp4387
g4355
ag4356
ag4357
a(lp4388
I5
ag12
aasbaF0.044999999999999998
aa(lp4389
(imodeler.Context
Context
p4390
(dp4391
g4
g21
sg6
I3
sg7
I3
sg8
F0.023
sg9
g4361
sg14
I6
sg15
I16
sg16
(lp4392
g4355
ag4356
ag4357
ag4388
asbaF0.29299999999999998
aa(lp4393
(imodeler.Context
Context
p4394
(dp4395
g4
g21
sg6
I5
sg7
I4
sg8
F0.017999999999999999
sg9
g4368
sg14
I6
sg15
I9
sg16
(lp4396
g4355
ag4356
ag4357
ag4388
a(lp4397
I2
ag25
aasbaF0.040000000000000001
aa(lp4398
(imodeler.Context
Context
p4399
(dp4400
g4
g21
sg6
I4
sg7
I2
sg8
F0.14000000000000001
sg9
(lp4401
(lp4402
I7
ag12
aa(lp4403
I12
ag47
aasg14
I6
sg15
I4
sg16
(lp4404
(lp4405
I5
ag25
aa(lp4406
I14
ag25
aa(lp4407
I13
ag25
aasbaF0.029999999999999999
aa(lp4408
(imodeler.Context
Context
p4409
(dp4410
g4
g21
sg6
I4
sg7
I3
sg8
F0.031
sg9
(lp4411
(lp4412
I8
ag25
aa(lp4413
I10
ag47
aasg14
I6
sg15
I13
sg16
(lp4414
(lp4415
I14
ag47
aa(lp4416
I14
ag25
aa(lp4417
I13
ag12
aa(lp4418
I4
ag12
aasbaF0.02
aa(lp4419
(imodeler.Context
Context
p4420
(dp4421
g4
g5
sg6
I5
sg7
I3
sg8
F0.023
sg9
(lp4422
(lp4423
I14
ag33
aa(lp4424
I7
ag25
aasg14
I6
sg15
I13
sg16
(lp4425
g4415
ag4416
ag4417
ag4418
asbaF0.050000000000000003
aa(lp4426
(imodeler.Context
Context
p4427
(dp4428
g4
g21
sg6
I2
sg7
I1
sg8
F0.14299999999999999
sg9
(lp4429
(lp4430
I4
ag33
aa(lp4431
I14
ag47
aasg14
I6
sg15
I0
sg16
(lp4432
sbaF0.040000000000000001
aa(lp4433
(imodeler.Context
Context
p4434
(dp4435
g4
g5
sg6
I3
sg7
I2
sg8
F0.088999999999999996
sg9
(lp4436
(lp4437
I11
ag47
aa(lp4438
I12
ag12
aasg14
I6
sg15
I5
sg16
(lp4439
(lp4440
I13
ag33
aa(lp4441
I11
ag25
aa(lp4442
I11
ag12
aasbaF0.039
aa(lp4443
(imodeler.Context
Context
p4444
(dp4445
g4
g5
sg6
I0
sg7
I1
sg8
F0.25
sg9
(lp4446
(lp4447
I14
ag33
aa(lp4448
I7
ag12
aasg14
I6
sg15
I0
sg16
(lp4449
sbaF0.070000000000000007
aa(lp4450
(imodeler.Context
Context
p4451
(dp4452
g4
g21
sg6
I1
sg7
I4
sg8
F0.086999999999999994
sg9
(lp4453
(lp4454
I9
ag33
aa(lp4455
I12
ag47
aasg14
I6
sg15
I3
sg16
(lp4456
(lp4457
I3
ag25
aa(lp4458
I2
ag25
aa(lp4459
I4
ag47
aa(lp4460
I10
ag25
aa(lp4461
I5
ag47
aasbaF0.024
aa(lp4462
(imodeler.Context
Context
p4463
(dp4464
g4
g21
sg6
I1
sg7
I4
sg8
F0.069000000000000006
sg9
g4453
sg14
I6
sg15
I5
sg16
(lp4465
g4457
ag4458
ag4459
ag4460
ag4461
asbaF0.029999999999999999
aa(lp4466
(imodeler.Context
Context
p4467
(dp4468
g4
g5
sg6
I1
sg7
I1
sg8
F0.25
sg9
(lp4469
(lp4470
I8
ag25
aa(lp4471
I8
ag33
aasg14
I6
sg15
I0
sg16
(lp4472
sbaF0.069000000000000006
aa(lp4473
(imodeler.Context
Context
p4474
(dp4475
g4
g5
sg6
I2
sg7
I1
sg8
F0.25
sg9
(lp4476
(lp4477
I10
ag47
aa(lp4478
I10
ag12
aasg14
I6
sg15
I1
sg16
(lp4479
sbaF0.20000000000000001
aa(lp4480
(imodeler.Context
Context
p4481
(dp4482
g4
g21
sg6
I4
sg7
I3
sg8
F0.16700000000000001
sg9
(lp4483
(lp4484
I7
ag25
aa(lp4485
I14
ag25
aasg14
I6
sg15
I1
sg16
(lp4486
(lp4487
I9
ag25
aa(lp4488
I11
ag47
aa(lp4489
I13
ag33
aa(lp4490
I13
ag12
aasbaF0.040000000000000001
aa(lp4491
(imodeler.Context
Context
p4492
(dp4493
g4
g5
sg6
I1
sg7
I1
sg8
F0.25
sg9
(lp4494
(lp4495
I12
ag47
aa(lp4496
I13
ag25
aasg14
I6
sg15
I1
sg16
(lp4497
sbaF0.084000000000000005
aa(lp4498
(imodeler.Context
Context
p4499
(dp4500
g4
g5
sg6
I2
sg7
I1
sg8
F0.11799999999999999
sg9
(lp4501
(lp4502
I12
ag25
aa(lp4503
I12
ag33
aasg14
I6
sg15
I2
sg16
(lp4504
sbaF0.30499999999999999
aa(lp4505
(imodeler.Context
Context
p4506
(dp4507
g4
g21
sg6
I4
sg7
I1
sg8
F0.17399999999999999
sg9
(lp4508
(lp4509
I12
ag12
aa(lp4510
I7
ag33
aasg14
I6
sg15
I3
sg16
(lp4511
sbaF0.017999999999999999
aa(lp4512
(imodeler.Context
Context
p4513
(dp4514
g4
g21
sg6
I4
sg7
I1
sg8
F0.114
sg9
g4508
sg14
I6
sg15
I5
sg16
(lp4515
sbaF0.016
aa(lp4516
(imodeler.Context
Context
p4517
(dp4518
g4
g5
sg6
I2
sg7
I1
sg8
F0.049000000000000002
sg9
g4501
sg14
I6
sg15
I6
sg16
(lp4519
sbaF0.30499999999999999
aa(lp4520
(imodeler.Context
Context
p4521
(dp4522
g4
g21
sg6
I4
sg7
I1
sg8
F0.085000000000000006
sg9
g4508
sg14
I6
sg15
I7
sg16
(lp4523
sbaF0.016
aa(lp4524
(imodeler.Context
Context
p4525
(dp4526
g4
g5
sg6
I0
sg7
I2
sg8
F0.14799999999999999
sg9
(lp4527
(lp4528
I13
ag12
aa(lp4529
I8
ag47
aasg14
I6
sg15
I2
sg16
(lp4530
(lp4531
I5
ag33
aa(lp4532
I13
ag47
aa(lp4533
I8
ag33
aasbaF0.02
aa(lp4534
(imodeler.Context
Context
p4535
(dp4536
g4
g21
sg6
I1
sg7
I2
sg8
F0.17100000000000001
sg9
(lp4537
(lp4538
I12
ag33
aa(lp4539
I7
ag47
aasg14
I6
sg15
I3
sg16
(lp4540
g4531
ag4532
ag4533
asbaF0.02
aa(lp4541
(imodeler.Context
Context
p4542
(dp4543
g4
g21
sg6
I3
sg7
I4
sg8
F0.017000000000000001
sg9
(lp4544
(lp4545
I13
ag25
aa(lp4546
I4
ag25
aasg14
I6
sg15
I2
sg16
(lp4547
g4531
ag4532
ag4533
a(lp4548
I11
ag12
aa(lp4549
I14
ag12
aasbaF0.025000000000000001
aa(lp4550
(imodeler.Context
Context
p4551
(dp4552
g4
g21
sg6
I3
sg7
I4
sg8
F0.016
sg9
g4544
sg14
I6
sg15
I4
sg16
(lp4553
g4531
ag4532
ag4533
ag4548
ag4549
asbaF0.025000000000000001
aa(lp4554
(imodeler.Context
Context
p4555
(dp4556
g4
g21
sg6
I3
sg7
I4
sg8
F0.014999999999999999
sg9
g4544
sg14
I6
sg15
I6
sg16
(lp4557
g4531
ag4532
ag4533
ag4548
ag4549
asbaF0.029999999999999999
aa(lp4558
(imodeler.Context
Context
p4559
(dp4560
g4
g5
sg6
I2
sg7
I1
sg8
F0.5
sg9
(lp4561
(lp4562
I10
ag33
aa(lp4563
I10
ag47
aasg14
I6
sg15
I0
sg16
(lp4564
sbaF0.27600000000000002
aa(lp4565
(imodeler.Context
Context
p4566
(dp4567
g4
g5
sg6
I1
sg7
I2
sg8
F0.129
sg9
(lp4568
(lp4569
I8
ag33
aa(lp4570
I13
ag25
aasg14
I6
sg15
I4
sg16
(lp4571
(lp4572
I9
ag33
aa(lp4573
I7
ag25
aa(lp4574
I13
ag12
aasbaF0.075999999999999998
aa(lp4575
(imodeler.Context
Context
p4576
(dp4577
g4
g5
sg6
I3
sg7
I1
sg8
F1.0
sg9
(lp4578
(lp4579
I10
ag12
aa(lp4580
I10
ag33
aasg14
I6
sg15
I0
sg16
(lp4581
sbaF0.29499999999999998
aa(lp4582
(imodeler.Context
Context
p4583
(dp4584
g4
g5
sg6
I0
sg7
I1
sg8
F0.20000000000000001
sg9
(lp4585
(lp4586
I12
ag47
aa(lp4587
I13
ag33
aasg14
I6
sg15
I1
sg16
(lp4588
sbaF0.059999999999999998
aa(lp4589
(imodeler.Context
Context
p4590
(dp4591
g4
g21
sg6
I1
sg7
I1
sg8
F0.14299999999999999
sg9
(lp4592
(lp4593
I9
ag47
aa(lp4594
I4
ag25
aasg14
I6
sg15
I4
sg16
(lp4595
sbaF0.01
aa(lp4596
(imodeler.Context
Context
p4597
(dp4598
g4
g5
sg6
I0
sg7
I2
sg8
F0.023
sg9
(lp4599
(lp4600
I13
ag25
aa(lp4601
I11
ag25
aasg14
I6
sg15
I2
sg16
(lp4602
(lp4603
I6
ag47
aa(lp4604
I9
ag47
aa(lp4605
I11
ag47
aasbaF0.059999999999999998
aa(lp4606
(imodeler.Context
Context
p4607
(dp4608
g4
g5
sg6
I0
sg7
I3
sg8
F0.090999999999999998
sg9
(lp4609
(lp4610
I6
ag33
aa(lp4611
I10
ag33
aasg14
I6
sg15
I1
sg16
(lp4612
(lp4613
I3
ag25
aa(lp4614
I3
ag12
aa(lp4615
I7
ag25
aa(lp4616
I10
ag12
aasbaF0.01
aa(lp4617
(imodeler.Context
Context
p4618
(dp4619
g4
g5
sg6
I2
sg7
I1
sg8
F0.0
sg9
(lp4620
(lp4621
I13
ag12
aa(lp4622
I13
ag33
aasg14
I6
sg15
I0
sg16
(lp4623
sbaF0.23799999999999999
aa(lp4624
(imodeler.Context
Context
p4625
(dp4626
g4
g5
sg6
I0
sg7
I4
sg8
F0.105
sg9
(lp4627
(lp4628
I13
ag33
aa(lp4629
I5
ag33
aasg14
I6
sg15
I1
sg16
(lp4630
(lp4631
I11
ag33
aa(lp4632
I6
ag25
aa(lp4633
I4
ag33
aa(lp4634
I12
ag33
aa(lp4635
I13
ag25
aasbaF0.02
aa(lp4636
(imodeler.Context
Context
p4637
(dp4638
g4
g5
sg6
I4
sg7
I4
sg8
F0.086999999999999994
sg9
(lp4639
(lp4640
I13
ag47
aa(lp4641
I4
ag12
aasg14
I6
sg15
I2
sg16
(lp4642
g4631
ag4632
ag4633
ag4634
ag4635
asbaF0.02
aa(lp4643
(imodeler.Context
Context
p4644
(dp4645
g4
g5
sg6
I4
sg7
I1
sg8
F0.10000000000000001
sg9
(lp4646
(lp4647
I13
ag12
aa(lp4648
I11
ag12
aasg14
I6
sg15
I1
sg16
(lp4649
sbaF0.13
aa(lp4650
(imodeler.Context
Context
p4651
(dp4652
g4
g5
sg6
I1
sg7
I2
sg8
F0.029000000000000001
sg9
(lp4653
(lp4654
I10
ag25
aa(lp4655
I3
ag12
aasg14
I6
sg15
I15
sg16
(lp4656
(lp4657
I10
ag33
aa(lp4658
I5
ag33
aa(lp4659
I11
ag47
aasbaF0.092999999999999999
aa(lp4660
(imodeler.Context
Context
p4661
(dp4662
g4
g21
sg6
I3
sg7
I2
sg8
F0.094
sg9
(lp4663
(lp4664
I7
ag12
aa(lp4665
I7
ag33
aasg14
I6
sg15
I4
sg16
(lp4666
(lp4667
I13
ag33
aa(lp4668
I9
ag47
aa(lp4669
I3
ag47
aasbaF0.098000000000000004
aa(lp4670
(imodeler.Context
Context
p4671
(dp4672
g4
g21
sg6
I3
sg7
I3
sg8
F0.027
sg9
g4663
sg14
I6
sg15
I5
sg16
(lp4673
g4667
ag4668
ag4669
a(lp4674
I4
ag12
aasbaF0.052999999999999999
aa(lp4675
(imodeler.Context
Context
p4676
(dp4677
g4
g21
sg6
I3
sg7
I3
sg8
F0.021000000000000001
sg9
g4663
sg14
I6
sg15
I11
sg16
(lp4678
g4667
ag4668
ag4669
ag4674
asbaF0.089999999999999997
aa(lp4679
(imodeler.Context
Context
p4680
(dp4681
g4
g21
sg6
I3
sg7
I4
sg8
F0.017999999999999999
sg9
g4663
sg14
I6
sg15
I3
sg16
(lp4682
g4667
ag4668
ag4669
ag4674
a(lp4683
I3
ag33
aasbaF0.042999999999999997
aa(lp4684
(imodeler.Context
Context
p4685
(dp4686
g4
g21
sg6
I3
sg7
I4
sg8
F0.014999999999999999
sg9
g4663
sg14
I6
sg15
I9
sg16
(lp4687
g4667
ag4668
ag4669
ag4674
ag4683
asbaF0.089999999999999997
aa(lp4688
(imodeler.Context
Context
p4689
(dp4690
g4
g21
sg6
I0
sg7
I4
sg8
F0.13300000000000001
sg9
(lp4691
(lp4692
I3
ag47
aa(lp4693
I14
ag12
aasg14
I6
sg15
I1
sg16
(lp4694
(lp4695
I11
ag33
aa(lp4696
I12
ag47
aa(lp4697
I8
ag12
aa(lp4698
I5
ag25
aa(lp4699
I8
ag33
aasbaF0.037999999999999999
aa(lp4700
(imodeler.Context
Context
p4701
(dp4702
g4
g5
sg6
I4
sg7
I1
sg8
F0.16700000000000001
sg9
(lp4703
(lp4704
I13
ag47
aa(lp4705
I13
ag25
aasg14
I6
sg15
I1
sg16
(lp4706
sbaF0.255
aa(lp4707
(imodeler.Context
Context
p4708
(dp4709
g4
g5
sg6
I0
sg7
I2
sg8
F0.034000000000000002
sg9
(lp4710
(lp4711
I5
ag33
aa(lp4712
I5
ag12
aasg14
I6
sg15
I13
sg16
(lp4713
(lp4714
I2
ag25
aa(lp4715
I8
ag47
aa(lp4716
I12
ag47
aasbaF0.019
aa(lp4717
(imodeler.Context
Context
p4718
(dp4719
g4
g5
sg6
I1
sg7
I2
sg8
F0.052999999999999999
sg9
(lp4720
(lp4721
I12
ag33
aa(lp4722
I14
ag33
aasg14
I6
sg15
I12
sg16
(lp4723
(lp4724
I13
ag33
aa(lp4725
I11
ag25
aa(lp4726
I12
ag47
aasbaF0.087999999999999995
aa(lp4727
(imodeler.Context
Context
p4728
(dp4729
g4
g5
sg6
I3
sg7
I2
sg8
F0.050000000000000003
sg9
(lp4730
(lp4731
I2
ag33
aa(lp4732
I13
ag25
aasg14
I6
sg15
I13
sg16
(lp4733
g4724
ag4725
ag4726
asbaF0.029999999999999999
aa(lp4734
(imodeler.Context
Context
p4735
(dp4736
g4
g5
sg6
I5
sg7
I3
sg8
F0.025000000000000001
sg9
(lp4737
(lp4738
I6
ag47
aa(lp4739
I13
ag12
aasg14
I6
sg15
I12
sg16
(lp4740
g4724
ag4725
ag4726
a(lp4741
I7
ag25
aasbaF0.115
aa(lp4742
(imodeler.Context
Context
p4743
(dp4744
g4
g5
sg6
I3
sg7
I3
sg8
F0.023
sg9
g4730
sg14
I6
sg15
I14
sg16
(lp4745
g4724
ag4725
ag4726
ag4741
asbaF0.02
aa(lp4746
(imodeler.Context
Context
p4747
(dp4748
g4
g5
sg6
I4
sg7
I3
sg8
F0.023
sg9
(lp4749
(lp4750
I12
ag12
aa(lp4751
I11
ag12
aasg14
I6
sg15
I15
sg16
(lp4752
g4724
ag4725
ag4726
ag4741
asbaF0.040000000000000001
aa(lp4753
(imodeler.Context
Context
p4754
(dp4755
g4
g5
sg6
I4
sg7
I4
sg8
F0.016
sg9
g4749
sg14
I6
sg15
I12
sg16
(lp4756
g4724
ag4725
ag4726
ag4741
a(lp4757
I8
ag25
aasbaF0.055
aa(lp4758
(imodeler.Context
Context
p4759
(dp4760
g4
g5
sg6
I5
sg7
I4
sg8
F0.016
sg9
g4737
sg14
I6
sg15
I13
sg16
(lp4761
g4724
ag4725
ag4726
ag4741
ag4757
asbaF0.029999999999999999
aa(lp4762
(imodeler.Context
Context
p4763
(dp4764
g4
g5
sg6
I3
sg7
I4
sg8
F0.014999999999999999
sg9
g4730
sg14
I6
sg15
I15
sg16
(lp4765
g4724
ag4725
ag4726
ag4741
ag4757
asbaF0.02
aa(lp4766
(imodeler.Context
Context
p4767
(dp4768
g4
g21
sg6
I3
sg7
I4
sg8
F0.028000000000000001
sg9
(lp4769
(lp4770
I13
ag33
aa(lp4771
I8
ag33
aasg14
I6
sg15
I5
sg16
(lp4772
(lp4773
I2
ag25
aa(lp4774
I11
ag12
aa(lp4775
I8
ag47
aa(lp4776
I6
ag33
aa(lp4777
I14
ag12
aasbaF0.029999999999999999
aa(lp4778
(imodeler.Context
Context
p4779
(dp4780
g4
g21
sg6
I3
sg7
I4
sg8
F0.025999999999999999
sg9
g4769
sg14
I6
sg15
I7
sg16
(lp4781
g4773
ag4774
ag4775
ag4776
ag4777
asbaF0.029999999999999999
aa(lp4782
(imodeler.Context
Context
p4783
(dp4784
g4
g5
sg6
I1
sg7
I3
sg8
F0.13300000000000001
sg9
(lp4785
(lp4786
I2
ag47
aa(lp4787
I12
ag12
aasg14
I6
sg15
I2
sg16
(lp4788
(lp4789
I7
ag47
aa(lp4790
I14
ag25
aa(lp4791
I11
ag12
aa(lp4792
I12
ag47
aasbaF0.01
aa(lp4793
(imodeler.Context
Context
p4794
(dp4795
g4
g5
sg6
I4
sg7
I3
sg8
F0.111
sg9
(lp4796
(lp4797
I14
ag47
aa(lp4798
I8
ag12
aasg14
I6
sg15
I3
sg16
(lp4799
g4789
ag4790
ag4791
ag4792
asbaF0.040000000000000001
aa(lp4800
(imodeler.Context
Context
p4801
(dp4802
g4
g21
sg6
I0
sg7
I3
sg8
F0.078
sg9
(lp4803
(lp4804
I9
ag25
aa(lp4805
I7
ag47
aasg14
I6
sg15
I6
sg16
(lp4806
(lp4807
I13
ag33
aa(lp4808
I4
ag47
aa(lp4809
I13
ag47
aa(lp4810
I8
ag25
aasbaF0.01
aa(lp4811
(imodeler.Context
Context
p4812
(dp4813
g4
g21
sg6
I3
sg7
I3
sg8
F0.037999999999999999
sg9
(lp4814
(lp4815
I13
ag47
aa(lp4816
I12
ag47
aasg14
I6
sg15
I3
sg16
(lp4817
(lp4818
I14
ag25
aa(lp4819
I3
ag47
aa(lp4820
I14
ag33
aa(lp4821
I14
ag47
aasbaF0.044999999999999998
aa(lp4822
(imodeler.Context
Context
p4823
(dp4824
g4
g21
sg6
I3
sg7
I3
sg8
F0.029000000000000001
sg9
g4814
sg14
I6
sg15
I7
sg16
(lp4825
g4818
ag4819
ag4820
ag4821
asbaF0.044999999999999998
aa(lp4826
(imodeler.Context
Context
p4827
(dp4828
g4
g21
sg6
I1
sg7
I3
sg8
F0.10000000000000001
sg9
(lp4829
(lp4830
I14
ag47
aa(lp4831
I8
ag12
aasg14
I6
sg15
I5
sg16
(lp4832
(lp4833
I5
ag47
aa(lp4834
I13
ag25
aa(lp4835
I13
ag33
aa(lp4836
I12
ag25
aasbaF0.040000000000000001
aa(lp4837
(imodeler.Context
Context
p4838
(dp4839
g4
g5
sg6
I2
sg7
I1
sg8
F0.125
sg9
(lp4840
(lp4841
I13
ag47
aa(lp4842
I13
ag25
aasg14
I6
sg15
I3
sg16
(lp4843
sbaF0.34999999999999998
aa(lp4844
(imodeler.Context
Context
p4845
(dp4846
g4
g5
sg6
I2
sg7
I2
sg8
F0.02
sg9
(lp4847
(lp4848
I4
ag33
aa(lp4849
I13
ag12
aasg14
I6
sg15
I1
sg16
(lp4850
(lp4851
I13
ag47
aa(lp4852
I2
ag25
aa(lp4853
I9
ag33
aasbaF0.16
aa(lp4854
(imodeler.Context
Context
p4855
(dp4856
g4
g21
sg6
I5
sg7
I4
sg8
F0.02
sg9
(lp4857
(lp4858
I9
ag25
aa(lp4859
I10
ag25
aasg14
I6
sg15
I10
sg16
(lp4860
(lp4861
I8
ag47
aa(lp4862
I3
ag12
aa(lp4863
I9
ag47
aa(lp4864
I11
ag12
aa(lp4865
I14
ag47
aasbaF0.02
aa(lp4866
(imodeler.Context
Context
p4867
(dp4868
g4
g21
sg6
I0
sg7
I4
sg8
F0.069000000000000006
sg9
(lp4869
(lp4870
I8
ag25
aa(lp4871
I12
ag47
aasg14
I6
sg15
I7
sg16
(lp4872
(lp4873
I5
ag25
aa(lp4874
I3
ag33
aa(lp4875
I9
ag47
aa(lp4876
I6
ag25
aa(lp4877
I11
ag12
aasbaF0.029999999999999999
aa(lp4878
(imodeler.Context
Context
p4879
(dp4880
g4
g5
sg6
I4
sg7
I1
sg8
F0.27300000000000002
sg9
(lp4881
(lp4882
I11
ag12
aa(lp4883
I11
ag47
aasg14
I6
sg15
I1
sg16
(lp4884
sbaF0.155
aa(lp4885
(imodeler.Context
Context
p4886
(dp4887
g4
g21
sg6
I0
sg7
I1
sg8
F0.23499999999999999
sg9
(lp4888
(lp4889
I7
ag12
aa(lp4890
I9
ag25
aasg14
I6
sg15
I2
sg16
(lp4891
sbaF0.014999999999999999
aa(lp4892
(imodeler.Context
Context
p4893
(dp4894
g4
g5
sg6
I2
sg7
I3
sg8
F0.083000000000000004
sg9
(lp4895
(lp4896
I13
ag25
aa(lp4897
I9
ag25
aasg14
I6
sg15
I1
sg16
(lp4898
(lp4899
I14
ag12
aa(lp4900
I14
ag25
aa(lp4901
I5
ag47
aa(lp4902
I13
ag47
aasbaF0.040000000000000001
aa(lp4903
(imodeler.Context
Context
p4904
(dp4905
g4
g5
sg6
I0
sg7
I3
sg8
F0.13300000000000001
sg9
(lp4906
(lp4907
I13
ag33
aa(lp4908
I3
ag33
aasg14
I6
sg15
I2
sg16
(lp4909
g4899
ag4900
ag4901
ag4902
asbaF0.029999999999999999
aa(lp4910
(imodeler.Context
Context
p4911
(dp4912
g4
g5
sg6
I2
sg7
I3
sg8
F0.095000000000000001
sg9
g4895
sg14
I6
sg15
I4
sg16
(lp4913
g4899
ag4900
ag4901
ag4902
asbaF0.040000000000000001
aa(lp4914
(imodeler.Context
Context
p4915
(dp4916
g4
g5
sg6
I0
sg7
I3
sg8
F0.083000000000000004
sg9
g4906
sg14
I6
sg15
I5
sg16
(lp4917
g4899
ag4900
ag4901
ag4902
asbaF0.02
aa(lp4918
(imodeler.Context
Context
p4919
(dp4920
g4
g5
sg6
I1
sg7
I3
sg8
F0.073999999999999996
sg9
(lp4921
(lp4922
I5
ag33
aa(lp4923
I12
ag47
aasg14
I6
sg15
I6
sg16
(lp4924
g4899
ag4900
ag4901
ag4902
asbaF0.02
aa(lp4925
(imodeler.Context
Context
p4926
(dp4927
g4
g5
sg6
I0
sg7
I1
sg8
F0.5
sg9
(lp4928
(lp4929
I5
ag33
aa(lp4930
I5
ag47
aasg14
I6
sg15
I1
sg16
(lp4931
sbaF0.059999999999999998
aa(lp4932
(imodeler.Context
Context
p4933
(dp4934
g4
g5
sg6
I5
sg7
I3
sg8
F0.108
sg9
(lp4935
(lp4936
I5
ag33
aa(lp4937
I12
ag25
aasg14
I6
sg15
I2
sg16
(lp4938
(lp4939
I3
ag25
aa(lp4940
I5
ag12
aa(lp4941
I13
ag33
aa(lp4942
I5
ag25
aasbaF0.02
aa(lp4943
(imodeler.Context
Context
p4944
(dp4945
g4
g21
sg6
I1
sg7
I3
sg8
F0.11799999999999999
sg9
(lp4946
(lp4947
I6
ag47
aa(lp4948
I9
ag25
aasg14
I6
sg15
I4
sg16
(lp4949
g4939
ag4940
ag4941
ag4942
asbaF0.02
aa(lp4950
(imodeler.Context
Context
p4951
(dp4952
g4
g5
sg6
I5
sg7
I3
sg8
F0.066000000000000003
sg9
g4935
sg14
I6
sg15
I5
sg16
(lp4953
g4939
ag4940
ag4941
ag4942
asbaF0.02
aa(lp4954
(imodeler.Context
Context
p4955
(dp4956
g4
g21
sg6
I1
sg7
I3
sg8
F0.080000000000000002
sg9
g4946
sg14
I6
sg15
I7
sg16
(lp4957
g4939
ag4940
ag4941
ag4942
asbaF0.02
aa(lp4958
(imodeler.Context
Context
p4959
(dp4960
g4
g5
sg6
I2
sg7
I3
sg8
F0.073999999999999996
sg9
(lp4961
(lp4962
I8
ag25
aa(lp4963
I13
ag12
aasg14
I6
sg15
I2
sg16
(lp4964
(lp4965
I13
ag25
aa(lp4966
I11
ag12
aa(lp4967
I5
ag12
aa(lp4968
I14
ag47
aasbaF0.040000000000000001
aa(lp4969
(imodeler.Context
Context
p4970
(dp4971
g4
g5
sg6
I4
sg7
I1
sg8
F0.14299999999999999
sg9
(lp4972
(lp4973
I9
ag33
aa(lp4974
I14
ag12
aasg14
I6
sg15
I2
sg16
(lp4975
sbaF0.059999999999999998
aa(lp4976
(imodeler.Context
Context
p4977
(dp4978
g4
g5
sg6
I0
sg7
I1
sg8
F0.33300000000000002
sg9
(lp4979
(lp4980
I8
ag33
aa(lp4981
I8
ag25
aasg14
I6
sg15
I1
sg16
(lp4982
sbaF0.13
aa(lp4983
(imodeler.Context
Context
p4984
(dp4985
g4
g5
sg6
I4
sg7
I3
sg8
F0.11799999999999999
sg9
(lp4986
(lp4987
I14
ag25
aa(lp4988
I3
ag33
aasg14
I6
sg15
I2
sg16
(lp4989
(lp4990
I11
ag47
aa(lp4991
I12
ag12
aa(lp4992
I11
ag12
aa(lp4993
I12
ag25
aasbaF0.029999999999999999
aa(lp4994
(imodeler.Context
Context
p4995
(dp4996
g4
g21
sg6
I0
sg7
I3
sg8
F0.10000000000000001
sg9
(lp4997
(lp4998
I3
ag33
aa(lp4999
I12
ag12
aasg14
I6
sg15
I1
sg16
(lp5000
(lp5001
I13
ag12
aa(lp5002
I5
ag47
aa(lp5003
I3
ag47
aa(lp5004
I14
ag12
aasbaF0.01
aa(lp5005
(imodeler.Context
Context
p5006
(dp5007
g4
g21
sg6
I3
sg7
I3
sg8
F0.105
sg9
(lp5008
(lp5009
I7
ag47
aa(lp5010
I7
ag12
aasg14
I6
sg15
I1
sg16
(lp5011
(lp5012
I8
ag25
aa(lp5013
I6
ag47
aa(lp5014
I12
ag47
aa(lp5015
I2
ag12
aasbaF0.048000000000000001
aa(lp5016
(imodeler.Context
Context
p5017
(dp5018
g4
g5
sg6
I2
sg7
I3
sg8
F0.125
sg9
(lp5019
(lp5020
I11
ag33
aa(lp5021
I12
ag25
aasg14
I6
sg15
I2
sg16
(lp5022
(lp5023
I14
ag12
aa(lp5024
I14
ag25
aa(lp5025
I8
ag25
aa(lp5026
I12
ag33
aasbaF0.040000000000000001
aa(lp5027
(imodeler.Context
Context
p5028
(dp5029
g4
g5
sg6
I5
sg7
I3
sg8
F0.105
sg9
(lp5030
(lp5031
I8
ag47
aa(lp5032
I14
ag33
aasg14
I6
sg15
I3
sg16
(lp5033
g5023
ag5024
ag5025
ag5026
asbaF0.040000000000000001
aa(lp5034
(imodeler.Context
Context
p5035
(dp5036
g4
g21
sg6
I0
sg7
I3
sg8
F0.13
sg9
(lp5037
(lp5038
I13
ag47
aa(lp5039
I6
ag12
aasg14
I6
sg15
I4
sg16
(lp5040
g5023
ag5024
ag5025
ag5026
asbaF0.029999999999999999
aa(lp5041
(imodeler.Context
Context
p5042
(dp5043
g4
g5
sg6
I2
sg7
I3
sg8
F0.070999999999999994
sg9
g5019
sg14
I6
sg15
I5
sg16
(lp5044
g5023
ag5024
ag5025
ag5026
asbaF0.040000000000000001
aa(lp5045
(imodeler.Context
Context
p5046
(dp5047
g4
g21
sg6
I3
sg7
I1
sg8
F0.38500000000000001
sg9
(lp5048
(lp5049
I14
ag33
aa(lp5050
I7
ag12
aasg14
I6
sg15
I1
sg16
(lp5051
sbaF0.059999999999999998
aa(lp5052
(imodeler.Context
Context
p5053
(dp5054
g4
g21
sg6
I4
sg7
I1
sg8
F0.105
sg9
(lp5055
(lp5056
I11
ag12
aa(lp5057
I9
ag47
aasg14
I6
sg15
I3
sg16
(lp5058
sbaF0.029999999999999999
aa(lp5059
(imodeler.Context
Context
p5060
(dp5061
g4
g5
sg6
I2
sg7
I1
sg8
F0.042000000000000003
sg9
(lp5062
(lp5063
I13
ag12
aa(lp5064
I13
ag25
aasg14
I6
sg15
I4
sg16
(lp5065
sbaF0.34999999999999998
aa(lp5066
(imodeler.Context
Context
p5067
(dp5068
g4
g21
sg6
I0
sg7
I3
sg8
F0.025999999999999999
sg9
(lp5069
(lp5070
I10
ag47
aa(lp5071
I13
ag47
aasg14
I6
sg15
I14
sg16
(lp5072
(lp5073
I8
ag47
aa(lp5074
I14
ag25
aa(lp5075
I4
ag12
aa(lp5076
I11
ag47
aasbaF0.050000000000000003
aa(lp5077
(imodeler.Context
Context
p5078
(dp5079
g4
g5
sg6
I1
sg7
I3
sg8
F0.019
sg9
(lp5080
(lp5081
I6
ag47
aa(lp5082
I11
ag25
aasg14
I6
sg15
I14
sg16
(lp5083
g5073
ag5074
ag5075
ag5076
asbaF0.025000000000000001
aa(lp5084
(imodeler.Context
Context
p5085
(dp5086
g4
g5
sg6
I2
sg7
I3
sg8
F0.019
sg9
g5062
sg14
I6
sg15
I15
sg16
(lp5087
g5073
ag5074
ag5075
ag5076
asbaF0.34999999999999998
aa(lp5088
(imodeler.Context
Context
p5089
(dp5090
g4
g5
sg6
I3
sg7
I4
sg8
F0.012999999999999999
sg9
g5048
sg14
I6
sg15
I13
sg16
(lp5091
g5073
ag5074
ag5075
ag5076
a(lp5092
I2
ag12
aasbaF0.123
aa(lp5093
(imodeler.Context
Context
p5094
(dp5095
g4
g21
sg6
I0
sg7
I4
sg8
F0.017000000000000001
sg9
g5069
sg14
I6
sg15
I15
sg16
(lp5096
g5073
ag5074
ag5075
ag5076
ag5092
asbaF0.050000000000000003
aa(lp5097
(imodeler.Context
Context
p5098
(dp5099
g4
g5
sg6
I4
sg7
I4
sg8
F0.076999999999999999
sg9
(lp5100
(lp5101
I10
ag47
aa(lp5102
I12
ag33
aasg14
I6
sg15
I1
sg16
(lp5103
(lp5104
I5
ag47
aa(lp5105
I9
ag47
aa(lp5106
I6
ag12
aa(lp5107
I4
ag33
aa(lp5108
I12
ag25
aasbaF0.040000000000000001
aa(lp5109
(imodeler.Context
Context
p5110
(dp5111
g4
g5
sg6
I4
sg7
I2
sg8
F0.023
sg9
(lp5112
(lp5113
I14
ag12
aa(lp5114
I7
ag33
aasg14
I6
sg15
I2
sg16
(lp5115
(lp5116
I14
ag25
aa(lp5117
I4
ag33
aa(lp5118
I3
ag25
aasbaF0.050000000000000003
aa(lp5119
(imodeler.Context
Context
p5120
(dp5121
g4
g5
sg6
I5
sg7
I1
sg8
F0.33300000000000002
sg9
(lp5122
(lp5123
I13
ag33
aa(lp5124
I13
ag25
aasg14
I6
sg15
I0
sg16
(lp5125
sbaF0.23999999999999999
aa(lp5126
(imodeler.Context
Context
p5127
(dp5128
g4
g5
sg6
I0
sg7
I4
sg8
F0.016
sg9
(lp5129
(lp5130
I11
ag25
aa(lp5131
I12
ag47
aasg14
I6
sg15
I15
sg16
(lp5132
(lp5133
I5
ag47
aa(lp5134
I14
ag25
aa(lp5135
I12
ag25
aa(lp5136
I11
ag47
aa(lp5137
I12
ag33
aasbaF0.040000000000000001
aa(lp5138
(imodeler.Context
Context
p5139
(dp5140
g4
g21
sg6
I0
sg7
I2
sg8
F0.17799999999999999
sg9
(lp5141
(lp5142
I13
ag12
aa(lp5143
I6
ag47
aasg14
I6
sg15
I4
sg16
(lp5144
(lp5145
I9
ag25
aa(lp5146
I14
ag12
aa(lp5147
I10
ag25
aasbaF0.029999999999999999
aa(lp5148
(imodeler.Context
Context
p5149
(dp5150
g4
g21
sg6
I0
sg7
I3
sg8
F0.027
sg9
g5141
sg14
I6
sg15
I13
sg16
(lp5151
g5145
ag5146
ag5147
a(lp5152
I6
ag33
aasbaF0.029999999999999999
aa(lp5153
(imodeler.Context
Context
p5154
(dp5155
g4
g5
sg6
I2
sg7
I1
sg8
F0.5
sg9
(lp5156
(lp5157
I8
ag47
aa(lp5158
I8
ag25
aasg14
I6
sg15
I1
sg16
(lp5159
sbaF0.20999999999999999
aa(lp5160
(imodeler.Context
Context
p5161
(dp5162
g4
g21
sg6
I3
sg7
I1
sg8
F0.36799999999999999
sg9
(lp5163
(lp5164
I9
ag12
aa(lp5165
I10
ag25
aasg14
I6
sg15
I2
sg16
(lp5166
sbaF0.02
aa(lp5167
(imodeler.Context
Context
p5168
(dp5169
g4
g21
sg6
I3
sg7
I1
sg8
F0.129
sg9
g5163
sg14
I6
sg15
I4
sg16
(lp5170
sbaF0.02
aa(lp5171
(imodeler.Context
Context
p5172
(dp5173
g4
g5
sg6
I4
sg7
I1
sg8
F0.36799999999999999
sg9
(lp5174
(lp5175
I9
ag12
aa(lp5176
I9
ag33
aasg14
I6
sg15
I2
sg16
(lp5177
sbaF0.16
aa(lp5178
(imodeler.Context
Context
p5179
(dp5180
g4
g21
sg6
I0
sg7
I1
sg8
F0.064000000000000001
sg9
(lp5181
(lp5182
I12
ag33
aa(lp5183
I2
ag25
aasg14
I6
sg15
I9
sg16
(lp5184
sbaF0.01
aa(lp5185
(imodeler.Context
Context
p5186
(dp5187
g4
g5
sg6
I1
sg7
I1
sg8
F0.041000000000000002
sg9
(lp5188
(lp5189
I5
ag33
aa(lp5190
I5
ag12
aasg14
I6
sg15
I9
sg16
(lp5191
sbaF0.050000000000000003
aa(lp5192
(imodeler.Context
Context
p5193
(dp5194
g4
g21
sg6
I1
sg7
I1
sg8
F0.031
sg9
g5188
sg14
I6
sg15
I12
sg16
(lp5195
sbaF0.059999999999999998
aa(lp5196
(imodeler.Context
Context
p5197
(dp5198
g4
g21
sg6
I4
sg7
I2
sg8
F0.024
sg9
g5174
sg14
I6
sg15
I4
sg16
(lp5199
(lp5200
I11
ag12
aa(lp5201
I2
ag33
aa(lp5202
I13
ag12
aasbaF0.16
aa(lp5203
(imodeler.Context
Context
p5204
(dp5205
g4
g21
sg6
I0
sg7
I2
sg8
F0.045999999999999999
sg9
(lp5206
(lp5207
I6
ag33
aa(lp5208
I8
ag47
aasg14
I6
sg15
I13
sg16
(lp5209
(lp5210
I14
ag33
aa(lp5211
I7
ag25
aa(lp5212
I11
ag12
aasbaF0.01
aa(lp5213
(imodeler.Context
Context
p5214
(dp5215
g4
g5
sg6
I2
sg7
I2
sg8
F0.032000000000000001
sg9
(lp5216
(lp5217
I14
ag12
aa(lp5218
I6
ag47
aasg14
I6
sg15
I14
sg16
(lp5219
g5210
ag5211
ag5212
asbaF0.040000000000000001
aa(lp5220
(imodeler.Context
Context
p5221
(dp5222
g4
g5
sg6
I4
sg7
I3
sg8
F0.021999999999999999
sg9
(lp5223
(lp5224
I11
ag33
aa(lp5225
I14
ag47
aasg14
I6
sg15
I16
sg16
(lp5226
g5210
ag5211
ag5212
a(lp5227
I8
ag33
aasbaF0.040000000000000001
aa(lp5228
(imodeler.Context
Context
p5229
(dp5230
g4
g5
sg6
I0
sg7
I3
sg8
F0.021000000000000001
sg9
g5206
sg14
I6
sg15
I17
sg16
(lp5231
g5210
ag5211
ag5212
ag5227
asbaF0.01
aa(lp5232
(imodeler.Context
Context
p5233
(dp5234
g4
g5
sg6
I1
sg7
I3
sg8
F0.021000000000000001
sg9
(lp5235
(lp5236
I2
ag47
aa(lp5237
I11
ag25
aasg14
I6
sg15
I18
sg16
(lp5238
g5210
ag5211
ag5212
ag5227
asbaF0.01
aa(lp5239
(imodeler.Context
Context
p5240
(dp5241
g4
g5
sg6
I2
sg7
I3
sg8
F0.02
sg9
g5216
sg14
I6
sg15
I19
sg16
(lp5242
g5210
ag5211
ag5212
ag5227
asbaF0.040000000000000001
aa(lp5243
(imodeler.Context
Context
p5244
(dp5245
g4
g21
sg6
I4
sg7
I3
sg8
F0.014
sg9
g5223
sg14
I6
sg15
I20
sg16
(lp5246
g5210
ag5211
ag5212
ag5227
asbaF0.040000000000000001
aa(lp5247
(imodeler.Context
Context
p5248
(dp5249
g4
g5
sg6
I3
sg7
I4
sg8
F0.014
sg9
(lp5250
(lp5251
I14
ag25
aa(lp5252
I9
ag33
aasg14
I6
sg15
I16
sg16
(lp5253
g5210
ag5211
ag5212
ag5227
a(lp5254
I5
ag25
aasbaF0.059999999999999998
aa(lp5255
(imodeler.Context
Context
p5256
(dp5257
g4
g5
sg6
I4
sg7
I4
sg8
F0.014
sg9
g5223
sg14
I6
sg15
I17
sg16
(lp5258
g5210
ag5211
ag5212
ag5227
ag5254
asbaF0.070000000000000007
aa(lp5259
(imodeler.Context
Context
p5260
(dp5261
g4
g5
sg6
I0
sg7
I4
sg8
F0.014
sg9
g5206
sg14
I6
sg15
I18
sg16
(lp5262
g5210
ag5211
ag5212
ag5227
ag5254
asbaF0.01
aa(lp5263
(imodeler.Context
Context
p5264
(dp5265
g4
g5
sg6
I1
sg7
I4
sg8
F0.012999999999999999
sg9
g5235
sg14
I6
sg15
I19
sg16
(lp5266
g5210
ag5211
ag5212
ag5227
ag5254
asbaF0.01
aa(lp5267
(imodeler.Context
Context
p5268
(dp5269
g4
g21
sg6
I3
sg7
I4
sg8
F0.01
sg9
g5250
sg14
I6
sg15
I20
sg16
(lp5270
g5210
ag5211
ag5212
ag5227
ag5254
asbaF0.13
aa(lp5271
(imodeler.Context
Context
p5272
(dp5273
g4
g21
sg6
I3
sg7
I2
sg8
F0.051999999999999998
sg9
(lp5274
(lp5275
I12
ag12
aa(lp5276
I12
ag47
aasg14
I6
sg15
I6
sg16
(lp5277
(lp5278
I13
ag33
aa(lp5279
I14
ag12
aa(lp5280
I10
ag25
aasbaF0.155
aa(lp5281
(imodeler.Context
Context
p5282
(dp5283
g4
g5
sg6
I3
sg7
I1
sg8
F0.20000000000000001
sg9
(lp5284
(lp5285
I10
ag47
aa(lp5286
I10
ag33
aasg14
I6
sg15
I1
sg16
(lp5287
sbaF0.245
aa(lp5288
(imodeler.Context
Context
p5289
(dp5290
g4
g5
sg6
I3
sg7
I1
sg8
F0.090999999999999998
sg9
g5284
sg14
I6
sg15
I3
sg16
(lp5291
sbaF0.32200000000000001
aa(lp5292
(imodeler.Context
Context
p5293
(dp5294
g4
g5
sg6
I3
sg7
I1
sg8
F0.058999999999999997
sg9
g5284
sg14
I6
sg15
I5
sg16
(lp5295
sbaF0.32200000000000001
aa(lp5296
(imodeler.Context
Context
p5297
(dp5298
g4
g5
sg6
I3
sg7
I1
sg8
F0.042999999999999997
sg9
g5284
sg14
I6
sg15
I7
sg16
(lp5299
sbaF0.309
aa(lp5300
(imodeler.Context
Context
p5301
(dp5302
g4
g21
sg6
I0
sg7
I2
sg8
F0.122
sg9
(lp5303
(lp5304
I3
ag47
aa(lp5305
I10
ag47
aasg14
I6
sg15
I5
sg16
(lp5306
(lp5307
I6
ag47
aa(lp5308
I9
ag25
aa(lp5309
I5
ag47
aasbaF0.01
aa(lp5310
(imodeler.Context
Context
p5311
(dp5312
g4
g5
sg6
I5
sg7
I3
sg8
F0.083000000000000004
sg9
(lp5313
(lp5314
I7
ag12
aa(lp5315
I11
ag12
aasg14
I6
sg15
I4
sg16
(lp5316
(lp5317
I10
ag33
aa(lp5318
I14
ag12
aa(lp5319
I7
ag47
aa(lp5320
I11
ag33
aasbaF0.02
aa(lp5321
(imodeler.Context
Context
p5322
(dp5323
g4
g21
sg6
I1
sg7
I3
sg8
F0.097000000000000003
sg9
(lp5324
(lp5325
I2
ag12
aa(lp5326
I12
ag33
aasg14
I6
sg15
I6
sg16
(lp5327
g5317
ag5318
ag5319
ag5320
asbaF0.01
aa(lp5328
(imodeler.Context
Context
p5329
(dp5330
g4
g5
sg6
I0
sg7
I1
sg8
F0.076999999999999999
sg9
(lp5331
(lp5332
I7
ag47
aa(lp5333
I7
ag25
aasg14
I6
sg15
I0
sg16
(lp5334
sbaF0.089999999999999997
aa(lp5335
(imodeler.Context
Context
p5336
(dp5337
g4
g5
sg6
I5
sg7
I2
sg8
F0.039
sg9
(lp5338
(lp5339
I7
ag47
aa(lp5340
I14
ag33
aasg14
I6
sg15
I12
sg16
(lp5341
(lp5342
I2
ag12
aa(lp5343
I11
ag12
aa(lp5344
I14
ag47
aasbaF0.125
aa(lp5345
(imodeler.Context
Context
p5346
(dp5347
g4
g21
sg6
I1
sg7
I2
sg8
F0.047
sg9
(lp5348
(lp5349
I8
ag25
aa(lp5350
I9
ag12
aasg14
I6
sg15
I14
sg16
(lp5351
g5342
ag5343
ag5344
asbaF0.01
aa(lp5352
(imodeler.Context
Context
p5353
(dp5354
g4
g5
sg6
I3
sg7
I2
sg8
F0.043999999999999997
sg9
(lp5355
(lp5356
I10
ag25
aa(lp5357
I10
ag33
aasg14
I6
sg15
I12
sg16
(lp5358
(lp5359
I14
ag33
aa(lp5360
I13
ag47
aa(lp5361
I3
ag12
aasbaF0.27500000000000002
aa(lp5362
(imodeler.Context
Context
p5363
(dp5364
g4
g5
sg6
I4
sg7
I2
sg8
F0.041000000000000002
sg9
(lp5365
(lp5366
I7
ag47
aa(lp5367
I13
ag25
aasg14
I6
sg15
I13
sg16
(lp5368
g5359
ag5360
ag5361
asbaF0.028000000000000001
aa(lp5369
(imodeler.Context
Context
p5370
(dp5371
g4
g5
sg6
I2
sg7
I2
sg8
F0.035999999999999997
sg9
(lp5372
(lp5373
I4
ag47
aa(lp5374
I13
ag12
aasg14
I6
sg15
I15
sg16
(lp5375
g5359
ag5360
ag5361
asbaF0.02
aa(lp5376
(imodeler.Context
Context
p5377
(dp5378
g4
g5
sg6
I1
sg7
I4
sg8
F0.016
sg9
(lp5379
(lp5380
I12
ag47
aa(lp5381
I9
ag25
aasg14
I6
sg15
I16
sg16
(lp5382
g5359
ag5360
ag5361
a(lp5383
I7
ag12
aa(lp5384
I9
ag12
aasbaF0.029999999999999999
aa(lp5385
(imodeler.Context
Context
p5386
(dp5387
g4
g5
sg6
I2
sg7
I4
sg8
F0.016
sg9
g5372
sg14
I6
sg15
I17
sg16
(lp5388
g5359
ag5360
ag5361
ag5383
ag5384
asbaF0.02
aa(lp5389
(imodeler.Context
Context
p5390
(dp5391
g4
g5
sg6
I3
sg7
I4
sg8
F0.016
sg9
g5355
sg14
I6
sg15
I18
sg16
(lp5392
g5359
ag5360
ag5361
ag5383
ag5384
asbaF0.20000000000000001
aa(lp5393
(imodeler.Context
Context
p5394
(dp5395
g4
g5
sg6
I4
sg7
I4
sg8
F0.014999999999999999
sg9
g5365
sg14
I6
sg15
I19
sg16
(lp5396
g5359
ag5360
ag5361
ag5383
ag5384
asbaF0.029999999999999999
aa(lp5397
(imodeler.Context
Context
p5398
(dp5399
g4
g21
sg6
I5
sg7
I2
sg8
F0.21099999999999999
sg9
(lp5400
(lp5401
I14
ag33
aa(lp5402
I12
ag12
aasg14
I6
sg15
I2
sg16
(lp5403
(lp5404
I11
ag33
aa(lp5405
I3
ag33
aa(lp5406
I6
ag12
aasbaF0.080000000000000002
aa(lp5407
(imodeler.Context
Context
p5408
(dp5409
g4
g21
sg6
I5
sg7
I2
sg8
F0.072999999999999995
sg9
g5400
sg14
I6
sg15
I8
sg16
(lp5410
g5404
ag5405
ag5406
asbaF0.080000000000000002
aa(lp5411
(imodeler.Context
Context
p5412
(dp5413
g4
g21
sg6
I2
sg7
I1
sg8
F0.36799999999999999
sg9
(lp5414
(lp5415
I8
ag47
aa(lp5416
I10
ag47
aasg14
I6
sg15
I2
sg16
(lp5417
sbaF0.02
aa(lp5418
(imodeler.Context
Context
p5419
(dp5420
g4
g5
sg6
I3
sg7
I1
sg8
F0.20799999999999999
sg9
(lp5421
(lp5422
I13
ag47
aa(lp5423
I13
ag33
aasg14
I6
sg15
I2
sg16
(lp5424
sbaF0.34999999999999998
aa(lp5425
(imodeler.Context
Context
p5426
(dp5427
g4
g21
sg6
I2
sg7
I1
sg8
F0.12
sg9
g5414
sg14
I6
sg15
I5
sg16
(lp5428
sbaF0.02
aa(lp5429
(imodeler.Context
Context
p5430
(dp5431
g4
g5
sg6
I3
sg7
I1
sg8
F0.048000000000000001
sg9
g5421
sg14
I6
sg15
I8
sg16
(lp5432
sbaF0.34999999999999998
aa(lp5433
(imodeler.Context
Context
p5434
(dp5435
g4
g21
sg6
I4
sg7
I1
sg8
F0.065000000000000002
sg9
(lp5436
(lp5437
I14
ag33
aa(lp5438
I4
ag25
aasg14
I6
sg15
I9
sg16
(lp5439
sbaF0.040000000000000001
aa(lp5440
(imodeler.Context
Context
p5441
(dp5442
g4
g5
sg6
I1
sg7
I1
sg8
F0.039
sg9
(lp5443
(lp5444
I6
ag25
aa(lp5445
I6
ag12
aasg14
I6
sg15
I10
sg16
(lp5446
sbaF0.070000000000000007
aa(lp5447
(imodeler.Context
Context
p5448
(dp5449
g4
g21
sg6
I2
sg7
I1
sg8
F0.055
sg9
g5414
sg14
I6
sg15
I11
sg16
(lp5450
sbaF0.02
aa(lp5451
(imodeler.Context
Context
p5452
(dp5453
g4
g5
sg6
I3
sg7
I1
sg8
F0.035000000000000003
sg9
g5421
sg14
I6
sg15
I11
sg16
(lp5454
sbaF0.34999999999999998
aa(lp5455
(imodeler.Context
Context
p5456
(dp5457
g4
g21
sg6
I4
sg7
I1
sg8
F0.049000000000000002
sg9
g5436
sg14
I6
sg15
I12
sg16
(lp5458
sbaF0.065000000000000002
aa(lp5459
(imodeler.Context
Context
p5460
(dp5461
g4
g21
sg6
I4
sg7
I2
sg8
F0.014
sg9
g5436
sg14
I6
sg15
I1
sg16
(lp5462
(lp5463
I3
ag33
aa(lp5464
I8
ag25
aa(lp5465
I5
ag25
aasbaF0.065000000000000002
aa(lp5466
(imodeler.Context
Context
p5467
(dp5468
g4
g5
sg6
I1
sg7
I2
sg8
F0.014
sg9
g5443
sg14
I6
sg15
I1
sg16
(lp5469
g5463
ag5464
ag5465
asbaF0.040000000000000001
aa(lp5470
(imodeler.Context
Context
p5471
(dp5472
g4
g21
sg6
I0
sg7
I3
sg8
F0.02
sg9
(lp5473
(lp5474
I12
ag47
aa(lp5475
I13
ag12
aasg14
I6
sg15
I15
sg16
(lp5476
g5463
ag5464
ag5465
a(lp5477
I2
ag47
aasbaF0.059999999999999998
aa(lp5478
(imodeler.Context
Context
p5479
(dp5480
g4
g5
sg6
I1
sg7
I1
sg8
F0.21099999999999999
sg9
(lp5481
(lp5482
I14
ag12
aa(lp5483
I7
ag25
aasg14
I6
sg15
I2
sg16
(lp5484
sbaF0.050000000000000003
aa(lp5485
(imodeler.Context
Context
p5486
(dp5487
g4
g5
sg6
I4
sg7
I1
sg8
F0.108
sg9
(lp5488
(lp5489
I7
ag33
aa(lp5490
I7
ag47
aasg14
I6
sg15
I4
sg16
(lp5491
sbaF0.089999999999999997
aa(lp5492
(imodeler.Context
Context
p5493
(dp5494
g4
g5
sg6
I1
sg7
I1
sg8
F0.059999999999999998
sg9
g5481
sg14
I6
sg15
I8
sg16
(lp5495
sbaF0.050000000000000003
aa(lp5496
(imodeler.Context
Context
p5497
(dp5498
g4
g5
sg6
I3
sg7
I1
sg8
F0.050999999999999997
sg9
(lp5499
(lp5500
I13
ag33
aa(lp5501
I13
ag47
aasg14
I6
sg15
I9
sg16
(lp5502
sbaF0.34999999999999998
aa(lp5503
(imodeler.Context
Context
p5504
(dp5505
g4
g5
sg6
I4
sg7
I1
sg8
F0.047
sg9
g5488
sg14
I6
sg15
I10
sg16
(lp5506
sbaF0.089999999999999997
aa(lp5507
(imodeler.Context
Context
p5508
(dp5509
g4
g5
sg6
I1
sg7
I1
sg8
F0.043999999999999997
sg9
g5481
sg14
I6
sg15
I11
sg16
(lp5510
sbaF0.050000000000000003
aa(lp5511
(imodeler.Context
Context
p5512
(dp5513
g4
g21
sg6
I3
sg7
I1
sg8
F0.039
sg9
g5499
sg14
I6
sg15
I12
sg16
(lp5514
sbaF0.34999999999999998
aa(lp5515
(imodeler.Context
Context
p5516
(dp5517
g4
g21
sg6
I0
sg7
I1
sg8
F0.214
sg9
(lp5518
(lp5519
I6
ag47
aa(lp5520
I14
ag47
aasg14
I6
sg15
I1
sg16
(lp5521
sbaF0.040000000000000001
aa(lp5522
(imodeler.Context
Context
p5523
(dp5524
g4
g21
sg6
I4
sg7
I2
sg8
F0.20000000000000001
sg9
(lp5525
(lp5526
I3
ag25
aa(lp5527
I11
ag12
aasg14
I6
sg15
I1
sg16
(lp5528
(lp5529
I12
ag12
aa(lp5530
I14
ag33
aa(lp5531
I13
ag25
aasbaF0.01
aa(lp5532
(imodeler.Context
Context
p5533
(dp5534
g4
g5
sg6
I3
sg7
I1
sg8
F0.0
sg9
(lp5535
(lp5536
I11
ag25
aa(lp5537
I11
ag47
aasg14
I6
sg15
I0
sg16
(lp5538
sbaF0.25
aa(lp5539
(imodeler.Context
Context
p5540
(dp5541
g4
g21
sg6
I4
sg7
I4
sg8
F0.070999999999999994
sg9
(lp5542
(lp5543
I7
ag47
aa(lp5544
I13
ag33
aasg14
I6
sg15
I6
sg16
(lp5545
(lp5546
I8
ag33
aa(lp5547
I13
ag25
aa(lp5548
I14
ag25
aa(lp5549
I11
ag25
aa(lp5550
I12
ag12
aasbaF0.029999999999999999
aa(lp5551
(imodeler.Context
Context
p5552
(dp5553
g4
g21
sg6
I5
sg7
I1
sg8
F0.114
sg9
(lp5554
(lp5555
I14
ag33
aa(lp5556
I2
ag12
aasg14
I6
sg15
I5
sg16
(lp5557
sbaF0.040000000000000001
aa(lp5558
(imodeler.Context
Context
p5559
(dp5560
g4
g21
sg6
I5
sg7
I1
sg8
F0.085000000000000006
sg9
g5554
sg14
I6
sg15
I7
sg16
(lp5561
sbaF0.040000000000000001
aa(lp5562
(imodeler.Context
Context
p5563
(dp5564
g4
g21
sg6
I3
sg7
I2
sg8
F0.20000000000000001
sg9
(lp5565
(lp5566
I13
ag47
aa(lp5567
I4
ag25
aasg14
I6
sg15
I1
sg16
(lp5568
(lp5569
I12
ag33
aa(lp5570
I6
ag33
aa(lp5571
I4
ag33
aasbaF0.02
aa(lp5572
(imodeler.Context
Context
p5573
(dp5574
g4
g5
sg6
I3
sg7
I4
sg8
F0.111
sg9
g5565
sg14
I6
sg15
I1
sg16
(lp5575
g5569
ag5570
ag5571
a(lp5576
I12
ag12
aa(lp5577
I13
ag12
aasbaF0.02
aa(lp5578
(imodeler.Context
Context
p5579
(dp5580
g4
g5
sg6
I3
sg7
I4
sg8
F0.076999999999999999
sg9
g5565
sg14
I6
sg15
I3
sg16
(lp5581
g5569
ag5570
ag5571
ag5576
ag5577
asbaF0.185
aa(lp5582
(imodeler.Context
Context
p5583
(dp5584
g4
g21
sg6
I2
sg7
I2
sg8
F0.129
sg9
(lp5585
(lp5586
I13
ag25
aa(lp5587
I2
ag33
aasg14
I6
sg15
I3
sg16
(lp5588
(lp5589
I2
ag25
aa(lp5590
I8
ag47
aa(lp5591
I10
ag12
aasbaF0.050000000000000003
aa(lp5592
(imodeler.Context
Context
p5593
(dp5594
g4
g5
sg6
I0
sg7
I2
sg8
F0.13300000000000001
sg9
(lp5595
(lp5596
I12
ag47
aa(lp5597
I9
ag33
aasg14
I6
sg15
I3
sg16
(lp5598
(lp5599
I9
ag25
aa(lp5600
I11
ag25
aa(lp5601
I5
ag25
aasbaF0.029999999999999999
aa(lp5602
(imodeler.Context
Context
p5603
(dp5604
g4
g5
sg6
I0
sg7
I2
sg8
F0.035999999999999997
sg9
g5595
sg14
I6
sg15
I15
sg16
(lp5605
g5599
ag5600
ag5601
asbaF0.029999999999999999
aa(lp5606
(imodeler.Context
Context
p5607
(dp5608
g4
g5
sg6
I0
sg7
I4
sg8
F0.086999999999999994
sg9
(lp5609
(lp5610
I10
ag25
aa(lp5611
I2
ag12
aasg14
I6
sg15
I2
sg16
(lp5612
(lp5613
I9
ag33
aa(lp5614
I14
ag33
aa(lp5615
I12
ag33
aa(lp5616
I13
ag47
aa(lp5617
I11
ag12
aasbaF0.01
aa(lp5618
(imodeler.Context
Context
p5619
(dp5620
g4
g21
sg6
I2
sg7
I1
sg8
F0.13800000000000001
sg9
(lp5621
(lp5622
I10
ag47
aa(lp5623
I14
ag12
aasg14
I6
sg15
I2
sg16
(lp5624
sbaF0.070000000000000007
aa(lp5625
(imodeler.Context
Context
p5626
(dp5627
g4
g5
sg6
I2
sg7
I2
sg8
F0.048000000000000001
sg9
(lp5628
(lp5629
I12
ag33
aa(lp5630
I8
ag47
aasg14
I6
sg15
I12
sg16
(lp5631
(lp5632
I10
ag33
aa(lp5633
I12
ag47
aa(lp5634
I4
ag47
aasbaF0.029999999999999999
aa(lp5635
(imodeler.Context
Context
p5636
(dp5637
g4
g21
sg6
I5
sg7
I1
sg8
F0.11799999999999999
sg9
(lp5638
(lp5639
I12
ag33
aa(lp5640
I6
ag47
aasg14
I6
sg15
I3
sg16
(lp5641
sbaF0.02
aa(lp5642
(imodeler.Context
Context
p5643
(dp5644
g4
g5
sg6
I1
sg7
I1
sg8
F0.14299999999999999
sg9
(lp5645
(lp5646
I13
ag33
aa(lp5647
I10
ag33
aasg14
I6
sg15
I2
sg16
(lp5648
sbaF0.050000000000000003
aa(lp5649
(imodeler.Context
Context
p5650
(dp5651
g4
g5
sg6
I3
sg7
I1
sg8
F0.5
sg9
(lp5652
(lp5653
I12
ag47
aa(lp5654
I12
ag12
aasg14
I6
sg15
I1
sg16
(lp5655
sbaF0.28999999999999998
aa(lp5656
(imodeler.Context
Context
p5657
(dp5658
g4
g21
sg6
I4
sg7
I1
sg8
F0.36799999999999999
sg9
(lp5659
(lp5660
I10
ag12
aa(lp5661
I4
ag12
aasg14
I6
sg15
I2
sg16
(lp5662
sbaF0.01
aa(lp5663
(imodeler.Context
Context
p5664
(dp5665
g4
g5
sg6
I2
sg7
I2
sg8
F0.080000000000000002
sg9
(lp5666
(lp5667
I6
ag25
aa(lp5668
I12
ag33
aasg14
I6
sg15
I7
sg16
(lp5669
(lp5670
I13
ag25
aa(lp5671
I12
ag47
aa(lp5672
I4
ag25
aasbaF0.02
aa(lp5673
(imodeler.Context
Context
p5674
(dp5675
g4
g5
sg6
I5
sg7
I1
sg8
F0.25
sg9
(lp5676
(lp5677
I10
ag47
aa(lp5678
I10
ag25
aasg14
I6
sg15
I0
sg16
(lp5679
sbaF0.20000000000000001
aa(lp5680
(imodeler.Context
Context
p5681
(dp5682
g4
g5
sg6
I5
sg7
I3
sg8
F0.021000000000000001
sg9
g5676
sg14
I6
sg15
I17
sg16
(lp5683
(lp5684
I7
ag47
aa(lp5685
I5
ag33
aa(lp5686
I11
ag12
aa(lp5687
I4
ag12
aasbaF0.20000000000000001
aa(lp5688
(imodeler.Context
Context
p5689
(dp5690
g4
g5
sg6
I0
sg7
I3
sg8
F0.021000000000000001
sg9
(lp5691
(lp5692
I7
ag25
aa(lp5693
I9
ag33
aasg14
I6
sg15
I18
sg16
(lp5694
g5684
ag5685
ag5686
ag5687
asbaF0.01
aa(lp5695
(imodeler.Context
Context
p5696
(dp5697
g4
g5
sg6
I1
sg7
I3
sg8
F0.02
sg9
(lp5698
(lp5699
I11
ag47
aa(lp5700
I12
ag12
aasg14
I6
sg15
I19
sg16
(lp5701
g5684
ag5685
ag5686
ag5687
asbaF0.040000000000000001
aa(lp5702
(imodeler.Context
Context
p5703
(dp5704
g4
g5
sg6
I3
sg7
I1
sg8
F0.27300000000000002
sg9
(lp5705
(lp5706
I13
ag33
aa(lp5707
I13
ag25
aasg14
I6
sg15
I1
sg16
(lp5708
sbaF0.34999999999999998
aa(lp5709
(imodeler.Context
Context
p5710
(dp5711
g4
g21
sg6
I4
sg7
I1
sg8
F0.23499999999999999
sg9
(lp5712
(lp5713
I12
ag25
aa(lp5714
I8
ag47
aasg14
I6
sg15
I2
sg16
(lp5715
sbaF0.029999999999999999
aa.