(lp0
(lp1
(imodeler.Context
Context
p2
(dp3
S'player_action'
p4
S'r'
p5
sS'player_nb'
p6
I2
sS'bet_round'
p7
I1
sS'pot_odds'
p8
F1.0
sS'player_cards'
p9
(lp10
(lp11
I2
aS'C'
p12
aa(lp13
I12
ag12
aasS'nb_players'
p14
I3
sS'nb_raises'
p15
I0
sS'shared_cards'
p16
(lp17
sbaF0.19500000000000001
aa(lp18
(imodeler.Context
Context
p19
(dp20
g4
S'c'
p21
sg6
I0
sg7
I1
sg8
F0.40000000000000002
sg9
(lp22
(lp23
I14
ag12
aa(lp24
I8
ag12
aasg14
I3
sg15
I1
sg16
(lp25
sbaF0.22600000000000001
aa(lp26
(imodeler.Context
Context
p27
(dp28
g4
g21
sg6
I2
sg7
I2
sg8
F0.0
sg9
g10
sg14
I3
sg15
I0
sg16
(lp29
(lp30
I5
aS'S'
p31
aa(lp32
I10
ag31
aa(lp33
I12
aS'H'
p34
aasbaF0.094
aa(lp35
(imodeler.Context
Context
p36
(dp37
g4
g21
sg6
I0
sg7
I2
sg8
F0.0
sg9
g22
sg14
I3
sg15
I0
sg16
(lp38
g30
ag32
ag33
asbaF0.23300000000000001
aa(lp39
(imodeler.Context
Context
p40
(dp41
g4
g5
sg6
I2
sg7
I3
sg8
F0.0
sg9
g10
sg14
I3
sg15
I0
sg16
(lp42
g30
ag32
ag33
a(lp43
I12
ag31
aasbaF0.10100000000000001
aa(lp44
(imodeler.Context
Context
p45
(dp46
g4
g21
sg6
I0
sg7
I3
sg8
F0.14299999999999999
sg9
g22
sg14
I3
sg15
I1
sg16
(lp47
g30
ag32
ag33
ag43
asbaF0.23499999999999999
aa(lp48
(imodeler.Context
Context
p49
(dp50
g4
g21
sg6
I2
sg7
I4
sg8
F0.0
sg9
g10
sg14
I3
sg15
I0
sg16
(lp51
g30
ag32
ag33
ag43
a(lp52
I13
ag34
aasbaF0.111
aa(lp53
(imodeler.Context
Context
p54
(dp55
g4
g21
sg6
I0
sg7
I4
sg8
F0.0
sg9
g22
sg14
I3
sg15
I0
sg16
(lp56
g30
ag32
ag33
ag43
ag52
asbaF0.378
aa(lp57
(imodeler.Context
Context
p58
(dp59
g4
g5
sg6
I0
sg7
I1
sg8
F1.0
sg9
(lp60
(lp61
I12
ag12
aa(lp62
I12
aS'D'
p63
aasg14
I3
sg15
I0
sg16
(lp64
sbaF0.53000000000000003
aa(lp65
(imodeler.Context
Context
p66
(dp67
g4
g21
sg6
I1
sg7
I1
sg8
F0.375
sg9
(lp68
(lp69
I7
ag12
aa(lp70
I7
ag31
aasg14
I3
sg15
I1
sg16
(lp71
sbaF0.255
aa(lp72
(imodeler.Context
Context
p73
(dp74
g4
g5
sg6
I0
sg7
I1
sg8
F0.14299999999999999
sg9
g60
sg14
I3
sg15
I2
sg16
(lp75
sbaF0.51500000000000001
aa(lp76
(imodeler.Context
Context
p77
(dp78
g4
g21
sg6
I1
sg7
I1
sg8
F0.20000000000000001
sg9
g68
sg14
I3
sg15
I3
sg16
(lp79
sbaF0.28499999999999998
aa(lp80
(imodeler.Context
Context
p81
(dp82
g4
g5
sg6
I0
sg7
I1
sg8
F0.076999999999999999
sg9
g60
sg14
I3
sg15
I4
sg16
(lp83
sbaF0.52000000000000002
aa(lp84
(imodeler.Context
Context
p85
(dp86
g4
g21
sg6
I1
sg7
I1
sg8
F0.125
sg9
g68
sg14
I3
sg15
I5
sg16
(lp87
sbaF0.28000000000000003
aa(lp88
(imodeler.Context
Context
p89
(dp90
g4
g5
sg6
I0
sg7
I2
sg8
F0.0
sg9
g60
sg14
I3
sg15
I0
sg16
(lp91
(lp92
I3
ag63
aa(lp93
I9
ag34
aa(lp94
I10
ag31
aasbaF0.34200000000000003
aa(lp95
(imodeler.Context
Context
p96
(dp97
g4
g21
sg6
I1
sg7
I2
sg8
F0.047
sg9
g68
sg14
I3
sg15
I1
sg16
(lp98
g92
ag93
ag94
asbaF0.28299999999999997
aa(lp99
(imodeler.Context
Context
p100
(dp101
g4
g5
sg6
I0
sg7
I3
sg8
F0.0
sg9
g60
sg14
I3
sg15
I0
sg16
(lp102
g92
ag93
ag94
a(lp103
I10
ag34
aasbaF0.41699999999999998
aa(lp104
(imodeler.Context
Context
p105
(dp106
g4
g21
sg6
I1
sg7
I3
sg8
F0.042999999999999997
sg9
g68
sg14
I3
sg15
I1
sg16
(lp107
g92
ag93
ag94
ag103
asbaF0.28299999999999997
aa(lp108
(imodeler.Context
Context
p109
(dp110
g4
g5
sg6
I0
sg7
I4
sg8
F0.0
sg9
g60
sg14
I3
sg15
I0
sg16
(lp111
g92
ag93
ag94
ag103
a(lp112
I6
ag31
aasbaF0.28199999999999997
aa(lp113
(imodeler.Context
Context
p114
(dp115
g4
g21
sg6
I1
sg7
I4
sg8
F0.039
sg9
g68
sg14
I3
sg15
I1
sg16
(lp116
g92
ag93
ag94
ag103
ag112
asbaF0.249
aa(lp117
(imodeler.Context
Context
p118
(dp119
g4
g5
sg6
I2
sg7
I2
sg8
F0.0
sg9
(lp120
(lp121
I11
ag31
aa(lp122
I8
ag31
aasg14
I3
sg15
I0
sg16
(lp123
(lp124
I8
ag12
aa(lp125
I8
ag34
aa(lp126
I11
ag63
aasbaF0.184
aa(lp127
(imodeler.Context
Context
p128
(dp129
g4
g21
sg6
I0
sg7
I2
sg8
F0.11799999999999999
sg9
(lp130
(lp131
I14
ag12
aa(lp132
I7
ag12
aasg14
I3
sg15
I1
sg16
(lp133
g124
ag125
ag126
asbaF0.24099999999999999
aa(lp134
(imodeler.Context
Context
p135
(dp136
g4
g5
sg6
I2
sg7
I4
sg8
F0.0
sg9
g120
sg14
I3
sg15
I0
sg16
(lp137
g124
ag125
ag126
a(lp138
I4
ag63
aa(lp139
I9
ag34
aasbaF0.20000000000000001
aa(lp140
(imodeler.Context
Context
p141
(dp142
g4
g21
sg6
I0
sg7
I4
sg8
F0.080000000000000002
sg9
g130
sg14
I3
sg15
I1
sg16
(lp143
g124
ag125
ag126
ag138
ag139
asbaF0.371
aa(lp144
(imodeler.Context
Context
p145
(dp146
g4
g21
sg6
I0
sg7
I1
sg8
F0.25
sg9
(lp147
(lp148
I12
ag12
aa(lp149
I13
ag12
aasg14
I3
sg15
I0
sg16
(lp150
sbaF0.23699999999999999
aa(lp151
(imodeler.Context
Context
p152
(dp153
g4
g21
sg6
I1
sg7
I1
sg8
F0.0
sg9
(lp154
(lp155
I14
ag12
aa(lp156
I7
ag31
aasg14
I3
sg15
I0
sg16
(lp157
sbaF0.23300000000000001
aa(lp158
(imodeler.Context
Context
p159
(dp160
g4
g21
sg6
I1
sg7
I2
sg8
F0.154
sg9
g154
sg14
I3
sg15
I1
sg16
(lp161
(lp162
I13
ag31
aa(lp163
I6
ag34
aa(lp164
I5
ag34
aasbaF0.251
aa(lp165
(imodeler.Context
Context
p166
(dp167
g4
g21
sg6
I1
sg7
I3
sg8
F0.11799999999999999
sg9
g154
sg14
I3
sg15
I1
sg16
(lp168
g162
ag163
ag164
a(lp169
I13
ag34
aasbaF0.24199999999999999
aa(lp170
(imodeler.Context
Context
p171
(dp172
g4
g21
sg6
I1
sg7
I4
sg8
F0.095000000000000001
sg9
g154
sg14
I3
sg15
I1
sg16
(lp173
g162
ag163
ag164
ag169
a(lp174
I3
ag63
aasbaF0.27500000000000002
aa(lp175
(imodeler.Context
Context
p176
(dp177
g4
g21
sg6
I1
sg7
I1
sg8
F1.0
sg9
(lp178
(lp179
I14
ag63
aa(lp180
I10
ag12
aasg14
I3
sg15
I0
sg16
(lp181
sbaF0.23100000000000001
aa(lp182
(imodeler.Context
Context
p183
(dp184
g4
g5
sg6
I0
sg7
I1
sg8
F0.25
sg9
(lp185
(lp186
I12
ag63
aa(lp187
I12
ag12
aasg14
I3
sg15
I1
sg16
(lp188
sbaF0.48499999999999999
aa(lp189
(imodeler.Context
Context
p190
(dp191
g4
g21
sg6
I1
sg7
I1
sg8
F0.28599999999999998
sg9
g178
sg14
I3
sg15
I2
sg16
(lp192
sbaF0.28000000000000003
aa(lp193
(imodeler.Context
Context
p194
(dp195
g4
g21
sg6
I0
sg7
I1
sg8
F0.0
sg9
(lp196
(lp197
I13
ag34
aa(lp198
I12
ag34
aasg14
I3
sg15
I0
sg16
(lp199
sbaF0.25600000000000001
aa(lp200
(imodeler.Context
Context
p201
(dp202
g4
g21
sg6
I1
sg7
I2
sg8
F0.0
sg9
(lp203
(lp204
I14
ag34
aa(lp205
I6
ag34
aasg14
I3
sg15
I0
sg16
(lp206
(lp207
I2
ag31
aa(lp208
I13
ag31
aa(lp209
I7
ag34
aasbaF0.23899999999999999
aa(lp210
(imodeler.Context
Context
p211
(dp212
g4
g5
sg6
I1
sg7
I3
sg8
F0.105
sg9
g203
sg14
I3
sg15
I1
sg16
(lp213
g207
ag208
ag209
a(lp214
I14
ag31
aasbaF0.218
aa(lp215
(imodeler.Context
Context
p216
(dp217
g4
g5
sg6
I0
sg7
I3
sg8
F0.073999999999999996
sg9
g196
sg14
I3
sg15
I2
sg16
(lp218
g207
ag208
ag209
ag214
asbaF0.26400000000000001
aa(lp219
(imodeler.Context
Context
p220
(dp221
g4
g5
sg6
I1
sg7
I3
sg8
F0.065000000000000002
sg9
g203
sg14
I3
sg15
I3
sg16
(lp222
g207
ag208
ag209
ag214
asbaF0.38500000000000001
aa(lp223
(imodeler.Context
Context
p224
(dp225
g4
g5
sg6
I0
sg7
I3
sg8
F0.050999999999999997
sg9
g196
sg14
I3
sg15
I4
sg16
(lp226
g207
ag208
ag209
ag214
asbaF0.26400000000000001
aa(lp227
(imodeler.Context
Context
p228
(dp229
g4
g5
sg6
I1
sg7
I3
sg8
F0.047
sg9
g203
sg14
I3
sg15
I5
sg16
(lp230
g207
ag208
ag209
ag214
asbaF0.38500000000000001
aa(lp231
(imodeler.Context
Context
p232
(dp233
g4
g5
sg6
I0
sg7
I3
sg8
F0.039
sg9
g196
sg14
I3
sg15
I6
sg16
(lp234
g207
ag208
ag209
ag214
asbaF0.26400000000000001
aa(lp235
(imodeler.Context
Context
p236
(dp237
g4
g5
sg6
I1
sg7
I3
sg8
F0.035999999999999997
sg9
g203
sg14
I3
sg15
I7
sg16
(lp238
g207
ag208
ag209
ag214
asbaF0.38500000000000001
aa(lp239
(imodeler.Context
Context
p240
(dp241
g4
g21
sg6
I0
sg7
I3
sg8
F0.032000000000000001
sg9
g196
sg14
I3
sg15
I8
sg16
(lp242
g207
ag208
ag209
ag214
asbaF0.26400000000000001
aa(lp243
(imodeler.Context
Context
p244
(dp245
g4
g5
sg6
I1
sg7
I4
sg8
F0.0
sg9
g203
sg14
I3
sg15
I0
sg16
(lp246
g207
ag208
ag209
ag214
a(lp247
I9
ag34
aasbaF0.27000000000000002
aa(lp248
(imodeler.Context
Context
p249
(dp250
g4
g5
sg6
I0
sg7
I4
sg8
F0.029999999999999999
sg9
g196
sg14
I3
sg15
I1
sg16
(lp251
g207
ag208
ag209
ag214
ag247
asbaF0.374
aa(lp252
(imodeler.Context
Context
p253
(dp254
g4
g5
sg6
I1
sg7
I4
sg8
F0.028000000000000001
sg9
g203
sg14
I3
sg15
I2
sg16
(lp255
g207
ag208
ag209
ag214
ag247
asbaF0.25900000000000001
aa(lp256
(imodeler.Context
Context
p257
(dp258
g4
g5
sg6
I0
sg7
I4
sg8
F0.027
sg9
g196
sg14
I3
sg15
I3
sg16
(lp259
g207
ag208
ag209
ag214
ag247
asbaF0.374
aa(lp260
(imodeler.Context
Context
p261
(dp262
g4
g5
sg6
I1
sg7
I4
sg8
F0.025000000000000001
sg9
g203
sg14
I3
sg15
I4
sg16
(lp263
g207
ag208
ag209
ag214
ag247
asbaF0.25900000000000001
aa(lp264
(imodeler.Context
Context
p265
(dp266
g4
g5
sg6
I0
sg7
I4
sg8
F0.024
sg9
g196
sg14
I3
sg15
I5
sg16
(lp267
g207
ag208
ag209
ag214
ag247
asbaF0.374
aa(lp268
(imodeler.Context
Context
p269
(dp270
g4
g5
sg6
I1
sg7
I4
sg8
F0.023
sg9
g203
sg14
I3
sg15
I6
sg16
(lp271
g207
ag208
ag209
ag214
ag247
asbaF0.25900000000000001
aa(lp272
(imodeler.Context
Context
p273
(dp274
g4
g5
sg6
I0
sg7
I4
sg8
F0.021999999999999999
sg9
g196
sg14
I3
sg15
I7
sg16
(lp275
g207
ag208
ag209
ag214
ag247
asbaF0.374
aa(lp276
(imodeler.Context
Context
p277
(dp278
g4
g21
sg6
I1
sg7
I4
sg8
F0.021000000000000001
sg9
g203
sg14
I3
sg15
I8
sg16
(lp279
g207
ag208
ag209
ag214
ag247
asbaF0.25900000000000001
aa(lp280
(imodeler.Context
Context
p281
(dp282
g4
g21
sg6
I0
sg7
I1
sg8
F1.0
sg9
(lp283
(lp284
I13
ag12
aa(lp285
I10
ag12
aasg14
I3
sg15
I0
sg16
(lp286
sbaF0.248
aa(lp287
(imodeler.Context
Context
p288
(dp289
g4
g21
sg6
I1
sg7
I1
sg8
F0.25
sg9
(lp290
(lp291
I12
ag63
aa(lp292
I14
ag31
aasg14
I3
sg15
I0
sg16
(lp293
sbaF0.313
aa(lp294
(imodeler.Context
Context
p295
(dp296
g4
g21
sg6
I0
sg7
I1
sg8
F0.25
sg9
g283
sg14
I3
sg15
I1
sg16
(lp297
sbaF0.245
aa(lp298
(imodeler.Context
Context
p299
(dp300
g4
g21
sg6
I1
sg7
I1
sg8
F0.20000000000000001
sg9
g290
sg14
I3
sg15
I1
sg16
(lp301
sbaF0.23499999999999999
aa(lp302
(imodeler.Context
Context
p303
(dp304
g4
g21
sg6
I2
sg7
I1
sg8
F0.25
sg9
(lp305
(lp306
I2
ag31
aa(lp307
I12
ag34
aasg14
I3
sg15
I0
sg16
(lp308
sbaF0.14000000000000001
aa(lp309
(imodeler.Context
Context
p310
(dp311
g4
g21
sg6
I1
sg7
I3
sg8
F0.0
sg9
(lp312
(lp313
I13
ag63
aa(lp314
I14
ag63
aasg14
I3
sg15
I0
sg16
(lp315
(lp316
I10
ag31
aa(lp317
I5
ag12
aa(lp318
I12
ag31
aa(lp319
I2
ag63
aasbaF0.35799999999999998
aa(lp320
(imodeler.Context
Context
p321
(dp322
g4
g21
sg6
I2
sg7
I3
sg8
F0.0
sg9
g305
sg14
I3
sg15
I0
sg16
(lp323
g316
ag317
ag318
ag319
asbaF0.17000000000000001
aa(lp324
(imodeler.Context
Context
p325
(dp326
g4
g21
sg6
I1
sg7
I4
sg8
F0.0
sg9
g312
sg14
I3
sg15
I0
sg16
(lp327
g316
ag317
ag318
ag319
a(lp328
I2
ag12
aasbaF0.39100000000000001
aa(lp329
(imodeler.Context
Context
p330
(dp331
g4
g21
sg6
I1
sg7
I4
sg8
F0.154
sg9
g312
sg14
I3
sg15
I1
sg16
(lp332
g316
ag317
ag318
ag319
ag328
asbaF0.28999999999999998
aa(lp333
(imodeler.Context
Context
p334
(dp335
g4
g5
sg6
I1
sg7
I1
sg8
F0.25
sg9
(lp336
(lp337
I13
ag34
aa(lp338
I13
ag12
aasg14
I3
sg15
I0
sg16
(lp339
sbaF0.58999999999999997
aa(lp340
(imodeler.Context
Context
p341
(dp342
g4
g5
sg6
I1
sg7
I2
sg8
F0.0
sg9
g336
sg14
I3
sg15
I0
sg16
(lp343
(lp344
I9
ag63
aa(lp345
I12
ag12
aa(lp346
I13
ag63
aasbaF0.437
aa(lp347
(imodeler.Context
Context
p348
(dp349
g4
g5
sg6
I1
sg7
I3
sg8
F0.0
sg9
g336
sg14
I3
sg15
I0
sg16
(lp350
g344
ag345
ag346
a(lp351
I6
ag34
aasbaF0.24199999999999999
aa(lp352
(imodeler.Context
Context
p353
(dp354
g4
g21
sg6
I0
sg7
I3
sg8
F0.080000000000000002
sg9
(lp355
(lp356
I8
ag34
aa(lp357
I8
ag12
aasg14
I3
sg15
I1
sg16
(lp358
g344
ag345
ag346
ag351
asbaF0.307
aa(lp359
(imodeler.Context
Context
p360
(dp361
g4
g5
sg6
I0
sg7
I1
sg8
F0.40000000000000002
sg9
(lp362
(lp363
I11
ag34
aa(lp364
I11
ag31
aasg14
I3
sg15
I1
sg16
(lp365
sbaF0.5
aa(lp366
(imodeler.Context
Context
p367
(dp368
g4
g21
sg6
I2
sg7
I1
sg8
F0.222
sg9
(lp369
(lp370
I9
ag12
aa(lp371
I8
ag31
aasg14
I3
sg15
I2
sg16
(lp372
sbaF0.11
aa(lp373
(imodeler.Context
Context
p374
(dp375
g4
g21
sg6
I2
sg7
I2
sg8
F0.111
sg9
g369
sg14
I3
sg15
I1
sg16
(lp376
(lp377
I8
ag63
aa(lp378
I7
ag63
aa(lp379
I10
ag31
aasbaF0.17299999999999999
aa(lp380
(imodeler.Context
Context
p381
(dp382
g4
g5
sg6
I2
sg7
I3
sg8
F0.090999999999999998
sg9
g369
sg14
I3
sg15
I1
sg16
(lp383
g377
ag378
ag379
a(lp384
I11
ag12
aasbaF0.34300000000000003
aa(lp385
(imodeler.Context
Context
p386
(dp387
g4
g5
sg6
I2
sg7
I3
sg8
F0.067000000000000004
sg9
g369
sg14
I3
sg15
I3
sg16
(lp388
g377
ag378
ag379
ag384
asbaF0.34300000000000003
aa(lp389
(imodeler.Context
Context
p390
(dp391
g4
g5
sg6
I2
sg7
I3
sg8
F0.052999999999999999
sg9
g369
sg14
I3
sg15
I5
sg16
(lp392
g377
ag378
ag379
ag384
asbaF0.34300000000000003
aa(lp393
(imodeler.Context
Context
p394
(dp395
g4
g5
sg6
I2
sg7
I3
sg8
F0.042999999999999997
sg9
g369
sg14
I3
sg15
I7
sg16
(lp396
g377
ag378
ag379
ag384
asbaF0.34300000000000003
aa(lp397
(imodeler.Context
Context
p398
(dp399
g4
g5
sg6
I2
sg7
I4
sg8
F0.034000000000000002
sg9
g369
sg14
I3
sg15
I2
sg16
(lp400
g377
ag378
ag379
ag384
a(lp401
I5
ag31
aasbaF0.248
aa(lp402
(imodeler.Context
Context
p403
(dp404
g4
g5
sg6
I2
sg7
I4
sg8
F0.029999999999999999
sg9
g369
sg14
I3
sg15
I4
sg16
(lp405
g377
ag378
ag379
ag384
ag401
asbaF0.248
aa(lp406
(imodeler.Context
Context
p407
(dp408
g4
g5
sg6
I2
sg7
I4
sg8
F0.027
sg9
g369
sg14
I3
sg15
I6
sg16
(lp409
g377
ag378
ag379
ag384
ag401
asbaF0.248
aa(lp410
(imodeler.Context
Context
p411
(dp412
g4
g21
sg6
I2
sg7
I4
sg8
F0.024
sg9
g369
sg14
I3
sg15
I8
sg16
(lp413
g377
ag378
ag379
ag384
ag401
asbaF0.248
aa(lp414
(imodeler.Context
Context
p415
(dp416
g4
g5
sg6
I2
sg7
I1
sg8
F0.25
sg9
(lp417
(lp418
I8
ag63
aa(lp419
I8
ag31
aasg14
I3
sg15
I0
sg16
(lp420
sbaF0.35999999999999999
aa(lp421
(imodeler.Context
Context
p422
(dp423
g4
g5
sg6
I1
sg7
I4
sg8
F0.080000000000000002
sg9
(lp424
(lp425
I9
ag12
aa(lp426
I14
ag12
aasg14
I3
sg15
I1
sg16
(lp427
(lp428
I10
ag34
aa(lp429
I9
ag63
aa(lp430
I8
ag34
aa(lp431
I6
ag31
aa(lp432
I9
ag31
aasbaF0.26000000000000001
aa(lp433
(imodeler.Context
Context
p434
(dp435
g4
g5
sg6
I1
sg7
I4
sg8
F0.060999999999999999
sg9
g424
sg14
I3
sg15
I3
sg16
(lp436
g428
ag429
ag430
ag431
ag432
asbaF0.26000000000000001
aa(lp437
(imodeler.Context
Context
p438
(dp439
g4
g5
sg6
I1
sg7
I4
sg8
F0.049000000000000002
sg9
g424
sg14
I3
sg15
I5
sg16
(lp440
g428
ag429
ag430
ag431
ag432
asbaF0.26000000000000001
aa(lp441
(imodeler.Context
Context
p442
(dp443
g4
g5
sg6
I1
sg7
I4
sg8
F0.041000000000000002
sg9
g424
sg14
I3
sg15
I7
sg16
(lp444
g428
ag429
ag430
ag431
ag432
asbaF0.26000000000000001
aa(lp445
(imodeler.Context
Context
p446
(dp447
g4
g5
sg6
I0
sg7
I1
sg8
F0.0
sg9
(lp448
(lp449
I11
ag63
aa(lp450
I11
ag31
aasg14
I3
sg15
I0
sg16
(lp451
sbaF0.5
aa(lp452
(imodeler.Context
Context
p453
(dp454
g4
g21
sg6
I1
sg7
I1
sg8
F0.28599999999999998
sg9
(lp455
(lp456
I14
ag63
aa(lp457
I7
ag63
aasg14
I3
sg15
I1
sg16
(lp458
sbaF0.22
aa(lp459
(imodeler.Context
Context
p460
(dp461
g4
g5
sg6
I1
sg7
I2
sg8
F0.125
sg9
g455
sg14
I3
sg15
I1
sg16
(lp462
(lp463
I14
ag12
aa(lp464
I2
ag63
aa(lp465
I8
ag12
aasbaF0.23200000000000001
aa(lp466
(imodeler.Context
Context
p467
(dp468
g4
g5
sg6
I0
sg7
I2
sg8
F0.10000000000000001
sg9
g448
sg14
I3
sg15
I2
sg16
(lp469
g463
ag464
ag465
asbaF0.33000000000000002
aa(lp470
(imodeler.Context
Context
p471
(dp472
g4
g5
sg6
I1
sg7
I2
sg8
F0.083000000000000004
sg9
g455
sg14
I3
sg15
I3
sg16
(lp473
g463
ag464
ag465
asbaF0.23200000000000001
aa(lp474
(imodeler.Context
Context
p475
(dp476
g4
g5
sg6
I0
sg7
I2
sg8
F0.070999999999999994
sg9
g448
sg14
I3
sg15
I4
sg16
(lp477
g463
ag464
ag465
asbaF0.33000000000000002
aa(lp478
(imodeler.Context
Context
p479
(dp480
g4
g5
sg6
I1
sg7
I2
sg8
F0.063
sg9
g455
sg14
I3
sg15
I5
sg16
(lp481
g463
ag464
ag465
asbaF0.23200000000000001
aa(lp482
(imodeler.Context
Context
p483
(dp484
g4
g5
sg6
I0
sg7
I2
sg8
F0.056000000000000001
sg9
g448
sg14
I3
sg15
I6
sg16
(lp485
g463
ag464
ag465
asbaF0.33000000000000002
aa(lp486
(imodeler.Context
Context
p487
(dp488
g4
g5
sg6
I1
sg7
I2
sg8
F0.050000000000000003
sg9
g455
sg14
I3
sg15
I7
sg16
(lp489
g463
ag464
ag465
asbaF0.23200000000000001
aa(lp490
(imodeler.Context
Context
p491
(dp492
g4
g21
sg6
I0
sg7
I2
sg8
F0.044999999999999998
sg9
g448
sg14
I3
sg15
I8
sg16
(lp493
g463
ag464
ag465
asbaF0.315
aa(lp494
(imodeler.Context
Context
p495
(dp496
g4
g5
sg6
I1
sg7
I1
sg8
F1.0
sg9
(lp497
(lp498
I10
ag31
aa(lp499
I10
ag34
aasg14
I3
sg15
I0
sg16
(lp500
sbaF0.495
aa(lp501
(imodeler.Context
Context
p502
(dp503
g4
g5
sg6
I1
sg7
I1
sg8
F0.14299999999999999
sg9
g497
sg14
I3
sg15
I2
sg16
(lp504
sbaF0.52000000000000002
aa(lp505
(imodeler.Context
Context
p506
(dp507
g4
g5
sg6
I0
sg7
I1
sg8
F0.090999999999999998
sg9
(lp508
(lp509
I11
ag31
aa(lp510
I11
ag63
aasg14
I3
sg15
I3
sg16
(lp511
sbaF0.5
aa(lp512
(imodeler.Context
Context
p513
(dp514
g4
g5
sg6
I1
sg7
I1
sg8
F0.076999999999999999
sg9
g497
sg14
I3
sg15
I4
sg16
(lp515
sbaF0.45000000000000001
aa(lp516
(imodeler.Context
Context
p517
(dp518
g4
g5
sg6
I0
sg7
I1
sg8
F0.058999999999999997
sg9
g508
sg14
I3
sg15
I5
sg16
(lp519
sbaF0.5
aa(lp520
(imodeler.Context
Context
p521
(dp522
g4
g5
sg6
I1
sg7
I1
sg8
F0.052999999999999999
sg9
g497
sg14
I3
sg15
I6
sg16
(lp523
sbaF0.45000000000000001
aa(lp524
(imodeler.Context
Context
p525
(dp526
g4
g5
sg6
I0
sg7
I1
sg8
F0.080000000000000002
sg9
g508
sg14
I3
sg15
I8
sg16
(lp527
sbaF0.5
aa(lp528
(imodeler.Context
Context
p529
(dp530
g4
g21
sg6
I1
sg7
I1
sg8
F0.070999999999999994
sg9
g497
sg14
I3
sg15
I9
sg16
(lp531
sbaF0.45000000000000001
aa(lp532
(imodeler.Context
Context
p533
(dp534
g4
g21
sg6
I0
sg7
I3
sg8
F0.0
sg9
g508
sg14
I3
sg15
I0
sg16
(lp535
(lp536
I9
ag34
aa(lp537
I14
ag63
aa(lp538
I13
ag31
aa(lp539
I12
ag34
aasbaF0.37
aa(lp540
(imodeler.Context
Context
p541
(dp542
g4
g5
sg6
I0
sg7
I4
sg8
F0.037999999999999999
sg9
(lp543
(lp544
I11
ag34
aa(lp545
I11
ag63
aasg14
I3
sg15
I2
sg16
(lp546
(lp547
I2
ag34
aa(lp548
I3
ag63
aa(lp549
I8
ag63
aa(lp550
I3
ag12
aa(lp551
I10
ag63
aasbaF0.39500000000000002
aa(lp552
(imodeler.Context
Context
p553
(dp554
g4
g5
sg6
I0
sg7
I4
sg8
F0.033000000000000002
sg9
g543
sg14
I3
sg15
I4
sg16
(lp555
g547
ag548
ag549
ag550
ag551
asbaF0.39500000000000002
aa(lp556
(imodeler.Context
Context
p557
(dp558
g4
g5
sg6
I0
sg7
I4
sg8
F0.029000000000000001
sg9
g543
sg14
I3
sg15
I6
sg16
(lp559
g547
ag548
ag549
ag550
ag551
asbaF0.39500000000000002
aa(lp560
(imodeler.Context
Context
p561
(dp562
g4
g21
sg6
I0
sg7
I4
sg8
F0.025999999999999999
sg9
g543
sg14
I3
sg15
I8
sg16
(lp563
g547
ag548
ag549
ag550
ag551
asbaF0.39500000000000002
aa(lp564
(imodeler.Context
Context
p565
(dp566
g4
g5
sg6
I0
sg7
I3
sg8
F0.16700000000000001
sg9
(lp567
(lp568
I12
ag31
aa(lp569
I14
ag12
aasg14
I3
sg15
I1
sg16
(lp570
(lp571
I2
ag12
aa(lp572
I7
ag12
aa(lp573
I2
ag63
aa(lp574
I14
ag31
aasbaF0.28999999999999998
aa(lp575
(imodeler.Context
Context
p576
(dp577
g4
g5
sg6
I1
sg7
I3
sg8
F0.125
sg9
(lp578
(lp579
I11
ag31
aa(lp580
I14
ag34
aasg14
I3
sg15
I2
sg16
(lp581
g571
ag572
ag573
ag574
asbaF0.27000000000000002
aa(lp582
(imodeler.Context
Context
p583
(dp584
g4
g5
sg6
I0
sg7
I3
sg8
F0.10000000000000001
sg9
g567
sg14
I3
sg15
I3
sg16
(lp585
g571
ag572
ag573
ag574
asbaF0.28999999999999998
aa(lp586
(imodeler.Context
Context
p587
(dp588
g4
g5
sg6
I1
sg7
I3
sg8
F0.083000000000000004
sg9
g578
sg14
I3
sg15
I4
sg16
(lp589
g571
ag572
ag573
ag574
asbaF0.23999999999999999
aa(lp590
(imodeler.Context
Context
p591
(dp592
g4
g5
sg6
I0
sg7
I3
sg8
F0.070999999999999994
sg9
g567
sg14
I3
sg15
I5
sg16
(lp593
g571
ag572
ag573
ag574
asbaF0.32500000000000001
aa(lp594
(imodeler.Context
Context
p595
(dp596
g4
g5
sg6
I1
sg7
I3
sg8
F0.063
sg9
g578
sg14
I3
sg15
I6
sg16
(lp597
g571
ag572
ag573
ag574
asbaF0.23999999999999999
aa(lp598
(imodeler.Context
Context
p599
(dp600
g4
g5
sg6
I0
sg7
I3
sg8
F0.056000000000000001
sg9
g567
sg14
I3
sg15
I7
sg16
(lp601
g571
ag572
ag573
ag574
asbaF0.32500000000000001
aa(lp602
(imodeler.Context
Context
p603
(dp604
g4
g21
sg6
I1
sg7
I3
sg8
F0.050000000000000003
sg9
g578
sg14
I3
sg15
I8
sg16
(lp605
g571
ag572
ag573
ag574
asbaF0.23999999999999999
aa(lp606
(imodeler.Context
Context
p607
(dp608
g4
g21
sg6
I0
sg7
I2
sg8
F0.21099999999999999
sg9
(lp609
(lp610
I11
ag34
aa(lp611
I14
ag34
aasg14
I3
sg15
I2
sg16
(lp612
(lp613
I13
ag12
aa(lp614
I7
ag12
aa(lp615
I7
ag63
aasbaF0.26000000000000001
aa(lp616
(imodeler.Context
Context
p617
(dp618
g4
g5
sg6
I1
sg7
I2
sg8
F0.095000000000000001
sg9
(lp619
(lp620
I13
ag63
aa(lp621
I14
ag31
aasg14
I3
sg15
I2
sg16
(lp622
g613
ag614
ag615
asbaF0.41999999999999998
aa(lp623
(imodeler.Context
Context
p624
(dp625
g4
g21
sg6
I0
sg7
I2
sg8
F0.129
sg9
g609
sg14
I3
sg15
I4
sg16
(lp626
g613
ag614
ag615
asbaF0.26000000000000001
aa(lp627
(imodeler.Context
Context
p628
(dp629
g4
g5
sg6
I1
sg7
I2
sg8
F0.060999999999999999
sg9
g619
sg14
I3
sg15
I4
sg16
(lp630
g613
ag614
ag615
asbaF0.41999999999999998
aa(lp631
(imodeler.Context
Context
p632
(dp633
g4
g21
sg6
I0
sg7
I2
sg8
F0.092999999999999999
sg9
g609
sg14
I3
sg15
I6
sg16
(lp634
g613
ag614
ag615
asbaF0.26000000000000001
aa(lp635
(imodeler.Context
Context
p636
(dp637
g4
g5
sg6
I1
sg7
I2
sg8
F0.043999999999999997
sg9
g619
sg14
I3
sg15
I6
sg16
(lp638
g613
ag614
ag615
asbaF0.41999999999999998
aa(lp639
(imodeler.Context
Context
p640
(dp641
g4
g21
sg6
I1
sg7
I2
sg8
F0.035000000000000003
sg9
g619
sg14
I3
sg15
I8
sg16
(lp642
g613
ag614
ag615
asbaF0.41999999999999998
aa(lp643
(imodeler.Context
Context
p644
(dp645
g4
g5
sg6
I1
sg7
I3
sg8
F0.033000000000000002
sg9
g619
sg14
I3
sg15
I1
sg16
(lp646
g613
ag614
ag615
a(lp647
I11
ag31
aasbaF0.41999999999999998
aa(lp648
(imodeler.Context
Context
p649
(dp650
g4
g21
sg6
I0
sg7
I4
sg8
F0.017999999999999999
sg9
g609
sg14
I3
sg15
I1
sg16
(lp651
g613
ag614
ag615
ag647
a(lp652
I12
ag34
aasbaF0.31
aa(lp653
(imodeler.Context
Context
p654
(dp655
g4
g5
sg6
I2
sg7
I3
sg8
F0.095000000000000001
sg9
(lp656
(lp657
I5
ag12
aa(lp658
I12
ag34
aasg14
I3
sg15
I2
sg16
(lp659
(lp660
I5
ag31
aa(lp661
I12
ag63
aa(lp662
I12
ag31
aa(lp663
I10
ag34
aasbaF0.13
aa(lp664
(imodeler.Context
Context
p665
(dp666
g4
g5
sg6
I2
sg7
I3
sg8
F0.069000000000000006
sg9
g656
sg14
I3
sg15
I4
sg16
(lp667
g660
ag661
ag662
ag663
asbaF0.125
aa(lp668
(imodeler.Context
Context
p669
(dp670
g4
g5
sg6
I2
sg7
I3
sg8
F0.053999999999999999
sg9
g656
sg14
I3
sg15
I6
sg16
(lp671
g660
ag661
ag662
ag663
asbaF0.125
aa(lp672
(imodeler.Context
Context
p673
(dp674
g4
g21
sg6
I2
sg7
I3
sg8
F0.043999999999999997
sg9
g656
sg14
I3
sg15
I8
sg16
(lp675
g660
ag661
ag662
ag663
asbaF0.125
aa(lp676
(imodeler.Context
Context
p677
(dp678
g4
g5
sg6
I2
sg7
I4
sg8
F0.041000000000000002
sg9
g656
sg14
I3
sg15
I1
sg16
(lp679
g660
ag661
ag662
ag663
a(lp680
I8
ag34
aasbaF0.13
aa(lp681
(imodeler.Context
Context
p682
(dp683
g4
g5
sg6
I2
sg7
I4
sg8
F0.035000000000000003
sg9
g656
sg14
I3
sg15
I3
sg16
(lp684
g660
ag661
ag662
ag663
ag680
asbaF0.13
aa(lp685
(imodeler.Context
Context
p686
(dp687
g4
g5
sg6
I2
sg7
I4
sg8
F0.031
sg9
g656
sg14
I3
sg15
I5
sg16
(lp688
g660
ag661
ag662
ag663
ag680
asbaF0.13
aa(lp689
(imodeler.Context
Context
p690
(dp691
g4
g5
sg6
I2
sg7
I4
sg8
F0.027
sg9
g656
sg14
I3
sg15
I7
sg16
(lp692
g660
ag661
ag662
ag663
ag680
asbaF0.13
aa(lp693
(imodeler.Context
Context
p694
(dp695
g4
g21
sg6
I0
sg7
I1
sg8
F0.28599999999999998
sg9
(lp696
(lp697
I14
ag63
aa(lp698
I9
ag34
aasg14
I3
sg15
I2
sg16
(lp699
sbaF0.23999999999999999
aa(lp700
(imodeler.Context
Context
p701
(dp702
g4
g21
sg6
I0
sg7
I1
sg8
F0.090999999999999998
sg9
g696
sg14
I3
sg15
I3
sg16
(lp703
sbaF0.23999999999999999
aa(lp704
(imodeler.Context
Context
p705
(dp706
g4
g21
sg6
I0
sg7
I2
sg8
F0.065000000000000002
sg9
g696
sg14
I3
sg15
I1
sg16
(lp707
(lp708
I12
ag31
aa(lp709
I4
ag12
aa(lp710
I10
ag63
aasbaF0.23999999999999999
aa(lp711
(imodeler.Context
Context
p712
(dp713
g4
g5
sg6
I2
sg7
I1
sg8
F0.0
sg9
(lp714
(lp715
I11
ag12
aa(lp716
I11
ag63
aasg14
I3
sg15
I0
sg16
(lp717
sbaF0.28499999999999998
aa(lp718
(imodeler.Context
Context
p719
(dp720
g4
g5
sg6
I0
sg7
I2
sg8
F0.125
sg9
(lp721
(lp722
I13
ag31
aa(lp723
I10
ag12
aasg14
I3
sg15
I1
sg16
(lp724
(lp725
I11
ag34
aa(lp726
I13
ag63
aa(lp727
I5
ag31
aasbaF0.23999999999999999
aa(lp728
(imodeler.Context
Context
p729
(dp730
g4
g5
sg6
I2
sg7
I2
sg8
F0.10000000000000001
sg9
g714
sg14
I3
sg15
I2
sg16
(lp731
g725
ag726
ag727
asbaF0.5
aa(lp732
(imodeler.Context
Context
p733
(dp734
g4
g5
sg6
I0
sg7
I2
sg8
F0.083000000000000004
sg9
g721
sg14
I3
sg15
I3
sg16
(lp735
g725
ag726
ag727
asbaF0.23999999999999999
aa(lp736
(imodeler.Context
Context
p737
(dp738
g4
g5
sg6
I2
sg7
I2
sg8
F0.070999999999999994
sg9
g714
sg14
I3
sg15
I4
sg16
(lp739
g725
ag726
ag727
asbaF0.5
aa(lp740
(imodeler.Context
Context
p741
(dp742
g4
g5
sg6
I0
sg7
I2
sg8
F0.063
sg9
g721
sg14
I3
sg15
I5
sg16
(lp743
g725
ag726
ag727
asbaF0.23999999999999999
aa(lp744
(imodeler.Context
Context
p745
(dp746
g4
g5
sg6
I2
sg7
I2
sg8
F0.056000000000000001
sg9
g714
sg14
I3
sg15
I6
sg16
(lp747
g725
ag726
ag727
asbaF0.5
aa(lp748
(imodeler.Context
Context
p749
(dp750
g4
g5
sg6
I0
sg7
I2
sg8
F0.050000000000000003
sg9
g721
sg14
I3
sg15
I7
sg16
(lp751
g725
ag726
ag727
asbaF0.23999999999999999
aa(lp752
(imodeler.Context
Context
p753
(dp754
g4
g21
sg6
I2
sg7
I2
sg8
F0.044999999999999998
sg9
g714
sg14
I3
sg15
I8
sg16
(lp755
g725
ag726
ag727
asbaF0.5
aa(lp756
(imodeler.Context
Context
p757
(dp758
g4
g5
sg6
I0
sg7
I3
sg8
F0.043999999999999997
sg9
(lp759
(lp760
I8
ag31
aa(lp761
I8
ag12
aasg14
I3
sg15
I1
sg16
(lp762
(lp763
I14
ag63
aa(lp764
I7
ag31
aa(lp765
I4
ag12
aa(lp766
I6
ag31
aasbaF0.35999999999999999
aa(lp767
(imodeler.Context
Context
p768
(dp769
g4
g5
sg6
I1
sg7
I3
sg8
F0.041000000000000002
sg9
(lp770
(lp771
I8
ag34
aa(lp772
I14
ag12
aasg14
I3
sg15
I2
sg16
(lp773
g763
ag764
ag765
ag766
asbaF0.20999999999999999
aa(lp774
(imodeler.Context
Context
p775
(dp776
g4
g5
sg6
I0
sg7
I3
sg8
F0.037999999999999999
sg9
g759
sg14
I3
sg15
I3
sg16
(lp777
g763
ag764
ag765
ag766
asbaF0.35999999999999999
aa(lp778
(imodeler.Context
Context
p779
(dp780
g4
g21
sg6
I0
sg7
I2
sg8
F0.20000000000000001
sg9
(lp781
(lp782
I6
ag34
aa(lp783
I6
ag31
aasg14
I3
sg15
I1
sg16
(lp784
(lp785
I2
ag31
aa(lp786
I2
ag34
aa(lp787
I11
ag63
aasbaF0.25
aa(lp788
(imodeler.Context
Context
p789
(dp790
g4
g21
sg6
I2
sg7
I1
sg8
F0.0
sg9
(lp791
(lp792
I5
ag12
aa(lp793
I5
ag34
aasg14
I3
sg15
I0
sg16
(lp794
sbaF0.23000000000000001
aa(lp795
(imodeler.Context
Context
p796
(dp797
g4
g21
sg6
I2
sg7
I1
sg8
F1.0
sg9
(lp798
(lp799
I4
ag12
aa(lp800
I2
ag63
aasg14
I3
sg15
I0
sg16
(lp801
sbaF0.059999999999999998
aa(lp802
(imodeler.Context
Context
p803
(dp804
g4
g5
sg6
I1
sg7
I1
sg8
F0.0
sg9
(lp805
(lp806
I9
ag34
aa(lp807
I9
ag12
aasg14
I3
sg15
I0
sg16
(lp808
sbaF0.40000000000000002
aa(lp809
(imodeler.Context
Context
p810
(dp811
g4
g5
sg6
I2
sg7
I1
sg8
F0.20000000000000001
sg9
(lp812
(lp813
I9
ag12
aa(lp814
I11
ag34
aasg14
I3
sg15
I1
sg16
(lp815
sbaF0.16
aa(lp816
(imodeler.Context
Context
p817
(dp818
g4
g21
sg6
I2
sg7
I1
sg8
F0.090999999999999998
sg9
g812
sg14
I3
sg15
I3
sg16
(lp819
sbaF0.16
aa(lp820
(imodeler.Context
Context
p821
(dp822
g4
g21
sg6
I2
sg7
I3
sg8
F0.050999999999999997
sg9
g812
sg14
I3
sg15
I1
sg16
(lp823
(lp824
I13
ag12
aa(lp825
I5
ag12
aa(lp826
I13
ag63
aa(lp827
I5
ag63
aasbaF0.16
aa(lp828
(imodeler.Context
Context
p829
(dp830
g4
g21
sg6
I2
sg7
I4
sg8
F0.111
sg9
(lp831
(lp832
I8
ag63
aa(lp833
I6
ag63
aasg14
I3
sg15
I1
sg16
(lp834
(lp835
I8
ag12
aa(lp836
I5
ag31
aa(lp837
I8
ag34
aa(lp838
I11
ag34
aa(lp839
I13
ag34
aasbaF0.080000000000000002
aa(lp840
(imodeler.Context
Context
p841
(dp842
g4
g21
sg6
I2
sg7
I1
sg8
F0.375
sg9
(lp843
(lp844
I6
ag31
aa(lp845
I11
ag12
aasg14
I3
sg15
I1
sg16
(lp846
sbaF0.12
aa(lp847
(imodeler.Context
Context
p848
(dp849
g4
g5
sg6
I2
sg7
I2
sg8
F0.11799999999999999
sg9
g843
sg14
I3
sg15
I1
sg16
(lp850
(lp851
I9
ag12
aa(lp852
I11
ag63
aa(lp853
I11
ag31
aasbaF0.12
aa(lp854
(imodeler.Context
Context
p855
(dp856
g4
g5
sg6
I2
sg7
I2
sg8
F0.080000000000000002
sg9
g843
sg14
I3
sg15
I3
sg16
(lp857
g851
ag852
ag853
asbaF0.12
aa(lp858
(imodeler.Context
Context
p859
(dp860
g4
g5
sg6
I2
sg7
I2
sg8
F0.060999999999999999
sg9
g843
sg14
I3
sg15
I5
sg16
(lp861
g851
ag852
ag853
asbaF0.12
aa(lp862
(imodeler.Context
Context
p863
(dp864
g4
g5
sg6
I2
sg7
I2
sg8
F0.049000000000000002
sg9
g843
sg14
I3
sg15
I7
sg16
(lp865
g851
ag852
ag853
asbaF0.12
aa(lp866
(imodeler.Context
Context
p867
(dp868
g4
g5
sg6
I2
sg7
I3
sg8
F0.037999999999999999
sg9
g843
sg14
I3
sg15
I2
sg16
(lp869
g851
ag852
ag853
a(lp870
I14
ag34
aasbaF0.12
aa.