(lp0
(lp1
(imodeler.Context
Context
p2
(dp3
S'player_action'
p4
S'r'
p5
sS'player_nb'
p6
I2
sS'nb_players'
p7
I3
sS'pot_odds'
p8
F1.0
sS'player_cards'
p9
(lp10
(lp11
I2
aS'C'
p12
aa(lp13
I12
ag12
aasS'bet_round'
p14
I1
sS'nb_raises'
p15
I0
sS'shared_cards'
p16
(lp17
sbaF0.083000000000000004
aa(lp18
(imodeler.Context
Context
p19
(dp20
g4
S'c'
p21
sg6
I0
sg7
I3
sg8
F0.40000000000000002
sg9
(lp22
(lp23
I14
ag12
aa(lp24
I8
ag12
aasg14
I1
sg15
I1
sg16
(lp25
sbaF0.184
aa(lp26
(imodeler.Context
Context
p27
(dp28
g4
g21
sg6
I2
sg7
I3
sg8
F0.0
sg9
g10
sg14
I2
sg15
I0
sg16
(lp29
(lp30
I5
aS'S'
p31
aa(lp32
I10
ag31
aa(lp33
I12
aS'H'
p34
aasbaF0.070999999999999994
aa(lp35
(imodeler.Context
Context
p36
(dp37
g4
g21
sg6
I0
sg7
I3
sg8
F0.0
sg9
g22
sg14
I2
sg15
I0
sg16
(lp38
g30
ag32
ag33
asbaF0.19900000000000001
aa(lp39
(imodeler.Context
Context
p40
(dp41
g4
g5
sg6
I2
sg7
I3
sg8
F0.0
sg9
g10
sg14
I3
sg15
I0
sg16
(lp42
g30
ag32
ag33
a(lp43
I12
ag31
aasbaF0.108
aa(lp44
(imodeler.Context
Context
p45
(dp46
g4
g21
sg6
I0
sg7
I3
sg8
F0.14299999999999999
sg9
g22
sg14
I3
sg15
I1
sg16
(lp47
g30
ag32
ag33
ag43
asbaF0.23999999999999999
aa(lp48
(imodeler.Context
Context
p49
(dp50
g4
g21
sg6
I2
sg7
I3
sg8
F0.0
sg9
g10
sg14
I4
sg15
I0
sg16
(lp51
g30
ag32
ag33
ag43
a(lp52
I13
ag34
aasbaF0.11
aa(lp53
(imodeler.Context
Context
p54
(dp55
g4
g21
sg6
I0
sg7
I3
sg8
F0.0
sg9
g22
sg14
I4
sg15
I0
sg16
(lp56
g30
ag32
ag33
ag43
ag52
asbaF0.371
aa(lp57
(imodeler.Context
Context
p58
(dp59
g4
g5
sg6
I0
sg7
I3
sg8
F1.0
sg9
(lp60
(lp61
I12
ag12
aa(lp62
I12
aS'D'
p63
aasg14
I1
sg15
I0
sg16
(lp64
sbaF0.46700000000000003
aa(lp65
(imodeler.Context
Context
p66
(dp67
g4
g21
sg6
I1
sg7
I3
sg8
F0.375
sg9
(lp68
(lp69
I7
ag12
aa(lp70
I7
ag31
aasg14
I1
sg15
I1
sg16
(lp71
sbaF0.253
aa(lp72
(imodeler.Context
Context
p73
(dp74
g4
g5
sg6
I0
sg7
I3
sg8
F0.14299999999999999
sg9
g60
sg14
I1
sg15
I2
sg16
(lp75
sbaF0.50700000000000001
aa(lp76
(imodeler.Context
Context
p77
(dp78
g4
g21
sg6
I1
sg7
I3
sg8
F0.20000000000000001
sg9
g68
sg14
I1
sg15
I3
sg16
(lp79
sbaF0.251
aa(lp80
(imodeler.Context
Context
p81
(dp82
g4
g5
sg6
I0
sg7
I3
sg8
F0.076999999999999999
sg9
g60
sg14
I1
sg15
I4
sg16
(lp83
sbaF0.50800000000000001
aa(lp84
(imodeler.Context
Context
p85
(dp86
g4
g21
sg6
I1
sg7
I3
sg8
F0.125
sg9
g68
sg14
I1
sg15
I5
sg16
(lp87
sbaF0.25
aa(lp88
(imodeler.Context
Context
p89
(dp90
g4
g5
sg6
I0
sg7
I3
sg8
F0.0
sg9
g60
sg14
I2
sg15
I0
sg16
(lp91
(lp92
I3
ag63
aa(lp93
I9
ag34
aa(lp94
I10
ag31
aasbaF0.30099999999999999
aa(lp95
(imodeler.Context
Context
p96
(dp97
g4
g21
sg6
I1
sg7
I3
sg8
F0.047
sg9
g68
sg14
I2
sg15
I1
sg16
(lp98
g92
ag93
ag94
asbaF0.33600000000000002
aa(lp99
(imodeler.Context
Context
p100
(dp101
g4
g5
sg6
I0
sg7
I3
sg8
F0.0
sg9
g60
sg14
I3
sg15
I0
sg16
(lp102
g92
ag93
ag94
a(lp103
I10
ag34
aasbaF0.20699999999999999
aa(lp104
(imodeler.Context
Context
p105
(dp106
g4
g21
sg6
I1
sg7
I3
sg8
F0.042999999999999997
sg9
g68
sg14
I3
sg15
I1
sg16
(lp107
g92
ag93
ag94
ag103
asbaF0.27200000000000002
aa(lp108
(imodeler.Context
Context
p109
(dp110
g4
g5
sg6
I0
sg7
I3
sg8
F0.0
sg9
g60
sg14
I4
sg15
I0
sg16
(lp111
g92
ag93
ag94
ag103
a(lp112
I6
ag31
aasbaF0.22600000000000001
aa(lp113
(imodeler.Context
Context
p114
(dp115
g4
g21
sg6
I1
sg7
I3
sg8
F0.039
sg9
g68
sg14
I4
sg15
I1
sg16
(lp116
g92
ag93
ag94
ag103
ag112
asbaF0.29599999999999999
aa(lp117
(imodeler.Context
Context
p118
(dp119
g4
g5
sg6
I2
sg7
I3
sg8
F0.0
sg9
(lp120
(lp121
I11
ag31
aa(lp122
I8
ag31
aasg14
I2
sg15
I0
sg16
(lp123
(lp124
I8
ag12
aa(lp125
I8
ag34
aa(lp126
I11
ag63
aasbaF0.14099999999999999
aa(lp127
(imodeler.Context
Context
p128
(dp129
g4
g21
sg6
I0
sg7
I3
sg8
F0.11799999999999999
sg9
(lp130
(lp131
I14
ag12
aa(lp132
I7
ag12
aasg14
I2
sg15
I1
sg16
(lp133
g124
ag125
ag126
asbaF0.26300000000000001
aa(lp134
(imodeler.Context
Context
p135
(dp136
g4
g5
sg6
I2
sg7
I3
sg8
F0.0
sg9
g120
sg14
I4
sg15
I0
sg16
(lp137
g124
ag125
ag126
a(lp138
I4
ag63
aa(lp139
I9
ag34
aasbaF0.106
aa(lp140
(imodeler.Context
Context
p141
(dp142
g4
g21
sg6
I0
sg7
I3
sg8
F0.080000000000000002
sg9
g130
sg14
I4
sg15
I1
sg16
(lp143
g124
ag125
ag126
ag138
ag139
asbaF0.21199999999999999
aa(lp144
(imodeler.Context
Context
p145
(dp146
g4
g21
sg6
I0
sg7
I3
sg8
F0.25
sg9
(lp147
(lp148
I12
ag12
aa(lp149
I13
ag12
aasg14
I1
sg15
I0
sg16
(lp150
sbaF0.27500000000000002
aa(lp151
(imodeler.Context
Context
p152
(dp153
g4
g21
sg6
I1
sg7
I3
sg8
F0.0
sg9
(lp154
(lp155
I14
ag12
aa(lp156
I7
ag31
aasg14
I1
sg15
I0
sg16
(lp157
sbaF0.23300000000000001
aa(lp158
(imodeler.Context
Context
p159
(dp160
g4
g21
sg6
I1
sg7
I3
sg8
F0.154
sg9
g154
sg14
I2
sg15
I1
sg16
(lp161
(lp162
I13
ag31
aa(lp163
I6
ag34
aa(lp164
I5
ag34
aasbaF0.24299999999999999
aa(lp165
(imodeler.Context
Context
p166
(dp167
g4
g21
sg6
I1
sg7
I3
sg8
F0.11799999999999999
sg9
g154
sg14
I3
sg15
I1
sg16
(lp168
g162
ag163
ag164
a(lp169
I13
ag34
aasbaF0.252
aa(lp170
(imodeler.Context
Context
p171
(dp172
g4
g21
sg6
I1
sg7
I3
sg8
F0.095000000000000001
sg9
g154
sg14
I4
sg15
I1
sg16
(lp173
g162
ag163
ag164
ag169
a(lp174
I3
ag63
aasbaF0.23300000000000001
aa(lp175
(imodeler.Context
Context
p176
(dp177
g4
g21
sg6
I1
sg7
I3
sg8
F1.0
sg9
(lp178
(lp179
I14
ag63
aa(lp180
I10
ag12
aasg14
I1
sg15
I0
sg16
(lp181
sbaF0.248
aa(lp182
(imodeler.Context
Context
p183
(dp184
g4
g5
sg6
I0
sg7
I3
sg8
F0.25
sg9
(lp185
(lp186
I12
ag63
aa(lp187
I12
ag12
aasg14
I1
sg15
I1
sg16
(lp188
sbaF0.48499999999999999
aa(lp189
(imodeler.Context
Context
p190
(dp191
g4
g21
sg6
I1
sg7
I3
sg8
F0.28599999999999998
sg9
g178
sg14
I1
sg15
I2
sg16
(lp192
sbaF0.28000000000000003
aa(lp193
(imodeler.Context
Context
p194
(dp195
g4
g21
sg6
I0
sg7
I3
sg8
F0.0
sg9
(lp196
(lp197
I13
ag34
aa(lp198
I12
ag34
aasg14
I1
sg15
I0
sg16
(lp199
sbaF0.193
aa(lp200
(imodeler.Context
Context
p201
(dp202
g4
g21
sg6
I1
sg7
I3
sg8
F0.0
sg9
(lp203
(lp204
I14
ag34
aa(lp205
I6
ag34
aasg14
I2
sg15
I0
sg16
(lp206
(lp207
I2
ag31
aa(lp208
I13
ag31
aa(lp209
I7
ag34
aasbaF0.245
aa(lp210
(imodeler.Context
Context
p211
(dp212
g4
g5
sg6
I1
sg7
I3
sg8
F0.105
sg9
g203
sg14
I3
sg15
I1
sg16
(lp213
g207
ag208
ag209
a(lp214
I14
ag31
aasbaF0.27400000000000002
aa(lp215
(imodeler.Context
Context
p216
(dp217
g4
g5
sg6
I0
sg7
I3
sg8
F0.073999999999999996
sg9
g196
sg14
I3
sg15
I2
sg16
(lp218
g207
ag208
ag209
ag214
asbaF0.19800000000000001
aa(lp219
(imodeler.Context
Context
p220
(dp221
g4
g5
sg6
I1
sg7
I3
sg8
F0.065000000000000002
sg9
g203
sg14
I3
sg15
I3
sg16
(lp222
g207
ag208
ag209
ag214
asbaF0.29499999999999998
aa(lp223
(imodeler.Context
Context
p224
(dp225
g4
g5
sg6
I0
sg7
I3
sg8
F0.050999999999999997
sg9
g196
sg14
I3
sg15
I4
sg16
(lp226
g207
ag208
ag209
ag214
asbaF0.20100000000000001
aa(lp227
(imodeler.Context
Context
p228
(dp229
g4
g5
sg6
I1
sg7
I3
sg8
F0.047
sg9
g203
sg14
I3
sg15
I5
sg16
(lp230
g207
ag208
ag209
ag214
asbaF0.316
aa(lp231
(imodeler.Context
Context
p232
(dp233
g4
g5
sg6
I0
sg7
I3
sg8
F0.039
sg9
g196
sg14
I3
sg15
I6
sg16
(lp234
g207
ag208
ag209
ag214
asbaF0.20100000000000001
aa(lp235
(imodeler.Context
Context
p236
(dp237
g4
g5
sg6
I1
sg7
I3
sg8
F0.035999999999999997
sg9
g203
sg14
I3
sg15
I7
sg16
(lp238
g207
ag208
ag209
ag214
asbaF0.316
aa(lp239
(imodeler.Context
Context
p240
(dp241
g4
g21
sg6
I0
sg7
I3
sg8
F0.032000000000000001
sg9
g196
sg14
I3
sg15
I8
sg16
(lp242
g207
ag208
ag209
ag214
asbaF0.20100000000000001
aa(lp243
(imodeler.Context
Context
p244
(dp245
g4
g5
sg6
I1
sg7
I3
sg8
F0.0
sg9
g203
sg14
I4
sg15
I0
sg16
(lp246
g207
ag208
ag209
ag214
a(lp247
I9
ag34
aasbaF0.48899999999999999
aa(lp248
(imodeler.Context
Context
p249
(dp250
g4
g5
sg6
I0
sg7
I3
sg8
F0.029999999999999999
sg9
g196
sg14
I4
sg15
I1
sg16
(lp251
g207
ag208
ag209
ag214
ag247
asbaF0.26800000000000002
aa(lp252
(imodeler.Context
Context
p253
(dp254
g4
g5
sg6
I1
sg7
I3
sg8
F0.028000000000000001
sg9
g203
sg14
I4
sg15
I2
sg16
(lp255
g207
ag208
ag209
ag214
ag247
asbaF0.34100000000000003
aa(lp256
(imodeler.Context
Context
p257
(dp258
g4
g5
sg6
I0
sg7
I3
sg8
F0.027
sg9
g196
sg14
I4
sg15
I3
sg16
(lp259
g207
ag208
ag209
ag214
ag247
asbaF0.26900000000000002
aa(lp260
(imodeler.Context
Context
p261
(dp262
g4
g5
sg6
I1
sg7
I3
sg8
F0.025000000000000001
sg9
g203
sg14
I4
sg15
I4
sg16
(lp263
g207
ag208
ag209
ag214
ag247
asbaF0.34399999999999997
aa(lp264
(imodeler.Context
Context
p265
(dp266
g4
g5
sg6
I0
sg7
I3
sg8
F0.024
sg9
g196
sg14
I4
sg15
I5
sg16
(lp267
g207
ag208
ag209
ag214
ag247
asbaF0.26900000000000002
aa(lp268
(imodeler.Context
Context
p269
(dp270
g4
g5
sg6
I1
sg7
I3
sg8
F0.023
sg9
g203
sg14
I4
sg15
I6
sg16
(lp271
g207
ag208
ag209
ag214
ag247
asbaF0.34399999999999997
aa(lp272
(imodeler.Context
Context
p273
(dp274
g4
g5
sg6
I0
sg7
I3
sg8
F0.021999999999999999
sg9
g196
sg14
I4
sg15
I7
sg16
(lp275
g207
ag208
ag209
ag214
ag247
asbaF0.26800000000000002
aa(lp276
(imodeler.Context
Context
p277
(dp278
g4
g21
sg6
I1
sg7
I3
sg8
F0.021000000000000001
sg9
g203
sg14
I4
sg15
I8
sg16
(lp279
g207
ag208
ag209
ag214
ag247
asbaF0.34300000000000003
aa(lp280
(imodeler.Context
Context
p281
(dp282
g4
g21
sg6
I0
sg7
I3
sg8
F1.0
sg9
(lp283
(lp284
I13
ag12
aa(lp285
I10
ag12
aasg14
I1
sg15
I0
sg16
(lp286
sbaF0.23799999999999999
aa(lp287
(imodeler.Context
Context
p288
(dp289
g4
g21
sg6
I1
sg7
I3
sg8
F0.25
sg9
(lp290
(lp291
I12
ag63
aa(lp292
I14
ag31
aasg14
I1
sg15
I0
sg16
(lp293
sbaF0.29099999999999998
aa(lp294
(imodeler.Context
Context
p295
(dp296
g4
g21
sg6
I0
sg7
I3
sg8
F0.25
sg9
g283
sg14
I1
sg15
I1
sg16
(lp297
sbaF0.23899999999999999
aa(lp298
(imodeler.Context
Context
p299
(dp300
g4
g21
sg6
I1
sg7
I3
sg8
F0.20000000000000001
sg9
g290
sg14
I1
sg15
I1
sg16
(lp301
sbaF0.28100000000000003
aa(lp302
(imodeler.Context
Context
p303
(dp304
g4
g21
sg6
I2
sg7
I3
sg8
F0.25
sg9
(lp305
(lp306
I2
ag31
aa(lp307
I12
ag34
aasg14
I1
sg15
I0
sg16
(lp308
sbaF0.27600000000000002
aa(lp309
(imodeler.Context
Context
p310
(dp311
g4
g21
sg6
I1
sg7
I3
sg8
F0.0
sg9
(lp312
(lp313
I13
ag63
aa(lp314
I14
ag63
aasg14
I3
sg15
I0
sg16
(lp315
(lp316
I10
ag31
aa(lp317
I5
ag12
aa(lp318
I12
ag31
aa(lp319
I2
ag63
aasbaF0.23799999999999999
aa(lp320
(imodeler.Context
Context
p321
(dp322
g4
g21
sg6
I2
sg7
I3
sg8
F0.0
sg9
g305
sg14
I3
sg15
I0
sg16
(lp323
g316
ag317
ag318
ag319
asbaF0.126
aa(lp324
(imodeler.Context
Context
p325
(dp326
g4
g21
sg6
I1
sg7
I3
sg8
F0.0
sg9
g312
sg14
I4
sg15
I0
sg16
(lp327
g316
ag317
ag318
ag319
a(lp328
I2
ag12
aasbaF0.317
aa(lp329
(imodeler.Context
Context
p330
(dp331
g4
g21
sg6
I1
sg7
I3
sg8
F0.154
sg9
g312
sg14
I4
sg15
I1
sg16
(lp332
g316
ag317
ag318
ag319
ag328
asbaF0.28999999999999998
aa(lp333
(imodeler.Context
Context
p334
(dp335
g4
g5
sg6
I1
sg7
I3
sg8
F0.25
sg9
(lp336
(lp337
I13
ag34
aa(lp338
I13
ag12
aasg14
I1
sg15
I0
sg16
(lp339
sbaF0.495
aa(lp340
(imodeler.Context
Context
p341
(dp342
g4
g5
sg6
I1
sg7
I3
sg8
F0.0
sg9
g336
sg14
I2
sg15
I0
sg16
(lp343
(lp344
I9
ag63
aa(lp345
I12
ag12
aa(lp346
I13
ag63
aasbaF0.55300000000000005
aa(lp347
(imodeler.Context
Context
p348
(dp349
g4
g5
sg6
I1
sg7
I3
sg8
F0.0
sg9
g336
sg14
I3
sg15
I0
sg16
(lp350
g344
ag345
ag346
a(lp351
I6
ag34
aasbaF0.49199999999999999
aa(lp352
(imodeler.Context
Context
p353
(dp354
g4
g21
sg6
I0
sg7
I3
sg8
F0.080000000000000002
sg9
(lp355
(lp356
I8
ag34
aa(lp357
I8
ag12
aasg14
I3
sg15
I1
sg16
(lp358
g344
ag345
ag346
ag351
asbaF0.26000000000000001
aa(lp359
(imodeler.Context
Context
p360
(dp361
g4
g5
sg6
I0
sg7
I3
sg8
F0.40000000000000002
sg9
(lp362
(lp363
I11
ag34
aa(lp364
I11
ag31
aasg14
I1
sg15
I1
sg16
(lp365
sbaF0.45000000000000001
aa(lp366
(imodeler.Context
Context
p367
(dp368
g4
g21
sg6
I2
sg7
I3
sg8
F0.222
sg9
(lp369
(lp370
I9
ag12
aa(lp371
I8
ag31
aasg14
I1
sg15
I2
sg16
(lp372
sbaF0.11
aa(lp373
(imodeler.Context
Context
p374
(dp375
g4
g21
sg6
I2
sg7
I3
sg8
F0.111
sg9
g369
sg14
I2
sg15
I1
sg16
(lp376
(lp377
I8
ag63
aa(lp378
I7
ag63
aa(lp379
I10
ag31
aasbaF0.125
aa(lp380
(imodeler.Context
Context
p381
(dp382
g4
g5
sg6
I2
sg7
I3
sg8
F0.090999999999999998
sg9
g369
sg14
I3
sg15
I1
sg16
(lp383
g377
ag378
ag379
a(lp384
I11
ag12
aasbaF0.21299999999999999
aa(lp385
(imodeler.Context
Context
p386
(dp387
g4
g5
sg6
I2
sg7
I3
sg8
F0.067000000000000004
sg9
g369
sg14
I3
sg15
I3
sg16
(lp388
g377
ag378
ag379
ag384
asbaF0.20399999999999999
aa(lp389
(imodeler.Context
Context
p390
(dp391
g4
g5
sg6
I2
sg7
I3
sg8
F0.052999999999999999
sg9
g369
sg14
I3
sg15
I5
sg16
(lp392
g377
ag378
ag379
ag384
asbaF0.20399999999999999
aa(lp393
(imodeler.Context
Context
p394
(dp395
g4
g5
sg6
I2
sg7
I3
sg8
F0.042999999999999997
sg9
g369
sg14
I3
sg15
I7
sg16
(lp396
g377
ag378
ag379
ag384
asbaF0.252
aa(lp397
(imodeler.Context
Context
p398
(dp399
g4
g5
sg6
I2
sg7
I3
sg8
F0.034000000000000002
sg9
g369
sg14
I4
sg15
I2
sg16
(lp400
g377
ag378
ag379
ag384
a(lp401
I5
ag31
aasbaF0.14599999999999999
aa(lp402
(imodeler.Context
Context
p403
(dp404
g4
g5
sg6
I2
sg7
I3
sg8
F0.029999999999999999
sg9
g369
sg14
I4
sg15
I4
sg16
(lp405
g377
ag378
ag379
ag384
ag401
asbaF0.151
aa(lp406
(imodeler.Context
Context
p407
(dp408
g4
g5
sg6
I2
sg7
I3
sg8
F0.027
sg9
g369
sg14
I4
sg15
I6
sg16
(lp409
g377
ag378
ag379
ag384
ag401
asbaF0.14299999999999999
aa(lp410
(imodeler.Context
Context
p411
(dp412
g4
g21
sg6
I2
sg7
I3
sg8
F0.024
sg9
g369
sg14
I4
sg15
I8
sg16
(lp413
g377
ag378
ag379
ag384
ag401
asbaF0.183
aa(lp414
(imodeler.Context
Context
p415
(dp416
g4
g5
sg6
I2
sg7
I3
sg8
F0.25
sg9
(lp417
(lp418
I8
ag63
aa(lp419
I8
ag31
aasg14
I1
sg15
I0
sg16
(lp420
sbaF0.29299999999999998
aa(lp421
(imodeler.Context
Context
p422
(dp423
g4
g5
sg6
I1
sg7
I3
sg8
F0.080000000000000002
sg9
(lp424
(lp425
I9
ag12
aa(lp426
I14
ag12
aasg14
I4
sg15
I1
sg16
(lp427
(lp428
I10
ag34
aa(lp429
I9
ag63
aa(lp430
I8
ag34
aa(lp431
I6
ag31
aa(lp432
I9
ag31
aasbaF0.26000000000000001
aa(lp433
(imodeler.Context
Context
p434
(dp435
g4
g5
sg6
I1
sg7
I3
sg8
F0.060999999999999999
sg9
g424
sg14
I4
sg15
I3
sg16
(lp436
g428
ag429
ag430
ag431
ag432
asbaF0.22900000000000001
aa(lp437
(imodeler.Context
Context
p438
(dp439
g4
g5
sg6
I1
sg7
I3
sg8
F0.049000000000000002
sg9
g424
sg14
I4
sg15
I5
sg16
(lp440
g428
ag429
ag430
ag431
ag432
asbaF0.221
aa(lp441
(imodeler.Context
Context
p442
(dp443
g4
g5
sg6
I1
sg7
I3
sg8
F0.041000000000000002
sg9
g424
sg14
I4
sg15
I7
sg16
(lp444
g428
ag429
ag430
ag431
ag432
asbaF0.22600000000000001
aa(lp445
(imodeler.Context
Context
p446
(dp447
g4
g5
sg6
I0
sg7
I3
sg8
F0.0
sg9
(lp448
(lp449
I11
ag63
aa(lp450
I11
ag31
aasg14
I1
sg15
I0
sg16
(lp451
sbaF0.40999999999999998
aa(lp452
(imodeler.Context
Context
p453
(dp454
g4
g21
sg6
I1
sg7
I3
sg8
F0.28599999999999998
sg9
(lp455
(lp456
I14
ag63
aa(lp457
I7
ag63
aasg14
I1
sg15
I1
sg16
(lp458
sbaF0.23300000000000001
aa(lp459
(imodeler.Context
Context
p460
(dp461
g4
g5
sg6
I1
sg7
I3
sg8
F0.125
sg9
g455
sg14
I2
sg15
I1
sg16
(lp462
(lp463
I14
ag12
aa(lp464
I2
ag63
aa(lp465
I8
ag12
aasbaF0.26100000000000001
aa(lp466
(imodeler.Context
Context
p467
(dp468
g4
g5
sg6
I0
sg7
I3
sg8
F0.10000000000000001
sg9
g448
sg14
I2
sg15
I2
sg16
(lp469
g463
ag464
ag465
asbaF0.378
aa(lp470
(imodeler.Context
Context
p471
(dp472
g4
g5
sg6
I1
sg7
I3
sg8
F0.083000000000000004
sg9
g455
sg14
I2
sg15
I3
sg16
(lp473
g463
ag464
ag465
asbaF0.253
aa(lp474
(imodeler.Context
Context
p475
(dp476
g4
g5
sg6
I0
sg7
I3
sg8
F0.070999999999999994
sg9
g448
sg14
I2
sg15
I4
sg16
(lp477
g463
ag464
ag465
asbaF0.436
aa(lp478
(imodeler.Context
Context
p479
(dp480
g4
g5
sg6
I1
sg7
I3
sg8
F0.063
sg9
g455
sg14
I2
sg15
I5
sg16
(lp481
g463
ag464
ag465
asbaF0.247
aa(lp482
(imodeler.Context
Context
p483
(dp484
g4
g5
sg6
I0
sg7
I3
sg8
F0.056000000000000001
sg9
g448
sg14
I2
sg15
I6
sg16
(lp485
g463
ag464
ag465
asbaF0.40400000000000003
aa(lp486
(imodeler.Context
Context
p487
(dp488
g4
g5
sg6
I1
sg7
I3
sg8
F0.050000000000000003
sg9
g455
sg14
I2
sg15
I7
sg16
(lp489
g463
ag464
ag465
asbaF0.25600000000000001
aa(lp490
(imodeler.Context
Context
p491
(dp492
g4
g21
sg6
I0
sg7
I3
sg8
F0.044999999999999998
sg9
g448
sg14
I2
sg15
I8
sg16
(lp493
g463
ag464
ag465
asbaF0.27800000000000002
aa(lp494
(imodeler.Context
Context
p495
(dp496
g4
g5
sg6
I1
sg7
I3
sg8
F1.0
sg9
(lp497
(lp498
I10
ag31
aa(lp499
I10
ag34
aasg14
I1
sg15
I0
sg16
(lp500
sbaF0.57899999999999996
aa(lp501
(imodeler.Context
Context
p502
(dp503
g4
g5
sg6
I1
sg7
I3
sg8
F0.14299999999999999
sg9
g497
sg14
I1
sg15
I2
sg16
(lp504
sbaF0.51100000000000001
aa(lp505
(imodeler.Context
Context
p506
(dp507
g4
g5
sg6
I0
sg7
I3
sg8
F0.090999999999999998
sg9
(lp508
(lp509
I11
ag31
aa(lp510
I11
ag63
aasg14
I1
sg15
I3
sg16
(lp511
sbaF0.5
aa(lp512
(imodeler.Context
Context
p513
(dp514
g4
g5
sg6
I1
sg7
I3
sg8
F0.076999999999999999
sg9
g497
sg14
I1
sg15
I4
sg16
(lp515
sbaF0.60799999999999998
aa(lp516
(imodeler.Context
Context
p517
(dp518
g4
g5
sg6
I0
sg7
I3
sg8
F0.058999999999999997
sg9
g508
sg14
I1
sg15
I5
sg16
(lp519
sbaF0.5
aa(lp520
(imodeler.Context
Context
p521
(dp522
g4
g5
sg6
I1
sg7
I3
sg8
F0.052999999999999999
sg9
g497
sg14
I1
sg15
I6
sg16
(lp523
sbaF0.52000000000000002
aa(lp524
(imodeler.Context
Context
p525
(dp526
g4
g5
sg6
I0
sg7
I3
sg8
F0.080000000000000002
sg9
g508
sg14
I1
sg15
I8
sg16
(lp527
sbaF0.5
aa(lp528
(imodeler.Context
Context
p529
(dp530
g4
g21
sg6
I1
sg7
I3
sg8
F0.070999999999999994
sg9
g497
sg14
I1
sg15
I9
sg16
(lp531
sbaF0.45000000000000001
aa(lp532
(imodeler.Context
Context
p533
(dp534
g4
g21
sg6
I0
sg7
I3
sg8
F0.0
sg9
g508
sg14
I3
sg15
I0
sg16
(lp535
(lp536
I9
ag34
aa(lp537
I14
ag63
aa(lp538
I13
ag31
aa(lp539
I12
ag34
aasbaF0.23899999999999999
aa(lp540
(imodeler.Context
Context
p541
(dp542
g4
g5
sg6
I0
sg7
I3
sg8
F0.037999999999999999
sg9
(lp543
(lp544
I11
ag34
aa(lp545
I11
ag63
aasg14
I4
sg15
I2
sg16
(lp546
(lp547
I2
ag34
aa(lp548
I3
ag63
aa(lp549
I8
ag63
aa(lp550
I3
ag12
aa(lp551
I10
ag63
aasbaF0.222
aa(lp552
(imodeler.Context
Context
p553
(dp554
g4
g5
sg6
I0
sg7
I3
sg8
F0.033000000000000002
sg9
g543
sg14
I4
sg15
I4
sg16
(lp555
g547
ag548
ag549
ag550
ag551
asbaF0.222
aa(lp556
(imodeler.Context
Context
p557
(dp558
g4
g5
sg6
I0
sg7
I3
sg8
F0.029000000000000001
sg9
g543
sg14
I4
sg15
I6
sg16
(lp559
g547
ag548
ag549
ag550
ag551
asbaF0.222
aa(lp560
(imodeler.Context
Context
p561
(dp562
g4
g21
sg6
I0
sg7
I3
sg8
F0.025999999999999999
sg9
g543
sg14
I4
sg15
I8
sg16
(lp563
g547
ag548
ag549
ag550
ag551
asbaF0.26100000000000001
aa(lp564
(imodeler.Context
Context
p565
(dp566
g4
g5
sg6
I0
sg7
I3
sg8
F0.16700000000000001
sg9
(lp567
(lp568
I12
ag31
aa(lp569
I14
ag12
aasg14
I3
sg15
I1
sg16
(lp570
(lp571
I2
ag12
aa(lp572
I7
ag12
aa(lp573
I2
ag63
aa(lp574
I14
ag31
aasbaF0.20999999999999999
aa(lp575
(imodeler.Context
Context
p576
(dp577
g4
g5
sg6
I1
sg7
I3
sg8
F0.125
sg9
(lp578
(lp579
I11
ag31
aa(lp580
I14
ag34
aasg14
I3
sg15
I2
sg16
(lp581
g571
ag572
ag573
ag574
asbaF0.27000000000000002
aa(lp582
(imodeler.Context
Context
p583
(dp584
g4
g5
sg6
I0
sg7
I3
sg8
F0.10000000000000001
sg9
g567
sg14
I3
sg15
I3
sg16
(lp585
g571
ag572
ag573
ag574
asbaF0.193
aa(lp586
(imodeler.Context
Context
p587
(dp588
g4
g5
sg6
I1
sg7
I3
sg8
F0.083000000000000004
sg9
g578
sg14
I3
sg15
I4
sg16
(lp589
g571
ag572
ag573
ag574
asbaF0.22700000000000001
aa(lp590
(imodeler.Context
Context
p591
(dp592
g4
g5
sg6
I0
sg7
I3
sg8
F0.070999999999999994
sg9
g567
sg14
I3
sg15
I5
sg16
(lp593
g571
ag572
ag573
ag574
asbaF0.33600000000000002
aa(lp594
(imodeler.Context
Context
p595
(dp596
g4
g5
sg6
I1
sg7
I3
sg8
F0.063
sg9
g578
sg14
I3
sg15
I6
sg16
(lp597
g571
ag572
ag573
ag574
asbaF0.24299999999999999
aa(lp598
(imodeler.Context
Context
p599
(dp600
g4
g5
sg6
I0
sg7
I3
sg8
F0.056000000000000001
sg9
g567
sg14
I3
sg15
I7
sg16
(lp601
g571
ag572
ag573
ag574
asbaF0.42099999999999999
aa(lp602
(imodeler.Context
Context
p603
(dp604
g4
g21
sg6
I1
sg7
I3
sg8
F0.050000000000000003
sg9
g578
sg14
I3
sg15
I8
sg16
(lp605
g571
ag572
ag573
ag574
asbaF0.24399999999999999
aa(lp606
(imodeler.Context
Context
p607
(dp608
g4
g21
sg6
I0
sg7
I3
sg8
F0.21099999999999999
sg9
(lp609
(lp610
I11
ag34
aa(lp611
I14
ag34
aasg14
I2
sg15
I2
sg16
(lp612
(lp613
I13
ag12
aa(lp614
I7
ag12
aa(lp615
I7
ag63
aasbaF0.20000000000000001
aa(lp616
(imodeler.Context
Context
p617
(dp618
g4
g5
sg6
I1
sg7
I3
sg8
F0.095000000000000001
sg9
(lp619
(lp620
I13
ag63
aa(lp621
I14
ag31
aasg14
I2
sg15
I2
sg16
(lp622
g613
ag614
ag615
asbaF0.46899999999999997
aa(lp623
(imodeler.Context
Context
p624
(dp625
g4
g21
sg6
I0
sg7
I3
sg8
F0.129
sg9
g609
sg14
I2
sg15
I4
sg16
(lp626
g613
ag614
ag615
asbaF0.20000000000000001
aa(lp627
(imodeler.Context
Context
p628
(dp629
g4
g5
sg6
I1
sg7
I3
sg8
F0.060999999999999999
sg9
g619
sg14
I2
sg15
I4
sg16
(lp630
g613
ag614
ag615
asbaF0.48899999999999999
aa(lp631
(imodeler.Context
Context
p632
(dp633
g4
g21
sg6
I0
sg7
I3
sg8
F0.092999999999999999
sg9
g609
sg14
I2
sg15
I6
sg16
(lp634
g613
ag614
ag615
asbaF0.20000000000000001
aa(lp635
(imodeler.Context
Context
p636
(dp637
g4
g5
sg6
I1
sg7
I3
sg8
F0.043999999999999997
sg9
g619
sg14
I2
sg15
I6
sg16
(lp638
g613
ag614
ag615
asbaF0.48899999999999999
aa(lp639
(imodeler.Context
Context
p640
(dp641
g4
g21
sg6
I1
sg7
I3
sg8
F0.035000000000000003
sg9
g619
sg14
I2
sg15
I8
sg16
(lp642
g613
ag614
ag615
asbaF0.47799999999999998
aa(lp643
(imodeler.Context
Context
p644
(dp645
g4
g5
sg6
I1
sg7
I3
sg8
F0.033000000000000002
sg9
g619
sg14
I3
sg15
I1
sg16
(lp646
g613
ag614
ag615
a(lp647
I11
ag31
aasbaF0.43099999999999999
aa(lp648
(imodeler.Context
Context
p649
(dp650
g4
g21
sg6
I0
sg7
I3
sg8
F0.017999999999999999
sg9
g609
sg14
I4
sg15
I1
sg16
(lp651
g613
ag614
ag615
ag647
a(lp652
I12
ag34
aasbaF0.22500000000000001
aa(lp653
(imodeler.Context
Context
p654
(dp655
g4
g5
sg6
I2
sg7
I3
sg8
F0.095000000000000001
sg9
(lp656
(lp657
I5
ag12
aa(lp658
I12
ag34
aasg14
I3
sg15
I2
sg16
(lp659
(lp660
I5
ag31
aa(lp661
I12
ag63
aa(lp662
I12
ag31
aa(lp663
I10
ag34
aasbaF0.106
aa(lp664
(imodeler.Context
Context
p665
(dp666
g4
g5
sg6
I2
sg7
I3
sg8
F0.069000000000000006
sg9
g656
sg14
I3
sg15
I4
sg16
(lp667
g660
ag661
ag662
ag663
asbaF0.129
aa(lp668
(imodeler.Context
Context
p669
(dp670
g4
g5
sg6
I2
sg7
I3
sg8
F0.053999999999999999
sg9
g656
sg14
I3
sg15
I6
sg16
(lp671
g660
ag661
ag662
ag663
asbaF0.105
aa(lp672
(imodeler.Context
Context
p673
(dp674
g4
g21
sg6
I2
sg7
I3
sg8
F0.043999999999999997
sg9
g656
sg14
I3
sg15
I8
sg16
(lp675
g660
ag661
ag662
ag663
asbaF0.106
aa(lp676
(imodeler.Context
Context
p677
(dp678
g4
g5
sg6
I2
sg7
I3
sg8
F0.041000000000000002
sg9
g656
sg14
I4
sg15
I1
sg16
(lp679
g660
ag661
ag662
ag663
a(lp680
I8
ag34
aasbaF0.099000000000000005
aa(lp681
(imodeler.Context
Context
p682
(dp683
g4
g5
sg6
I2
sg7
I3
sg8
F0.035000000000000003
sg9
g656
sg14
I4
sg15
I3
sg16
(lp684
g660
ag661
ag662
ag663
ag680
asbaF0.10199999999999999
aa(lp685
(imodeler.Context
Context
p686
(dp687
g4
g5
sg6
I2
sg7
I3
sg8
F0.031
sg9
g656
sg14
I4
sg15
I5
sg16
(lp688
g660
ag661
ag662
ag663
ag680
asbaF0.098000000000000004
aa(lp689
(imodeler.Context
Context
p690
(dp691
g4
g5
sg6
I2
sg7
I3
sg8
F0.027
sg9
g656
sg14
I4
sg15
I7
sg16
(lp692
g660
ag661
ag662
ag663
ag680
asbaF0.099000000000000005
aa(lp693
(imodeler.Context
Context
p694
(dp695
g4
g21
sg6
I0
sg7
I3
sg8
F0.28599999999999998
sg9
(lp696
(lp697
I14
ag63
aa(lp698
I9
ag34
aasg14
I1
sg15
I2
sg16
(lp699
sbaF0.248
aa(lp700
(imodeler.Context
Context
p701
(dp702
g4
g21
sg6
I0
sg7
I3
sg8
F0.090999999999999998
sg9
g696
sg14
I1
sg15
I3
sg16
(lp703
sbaF0.253
aa(lp704
(imodeler.Context
Context
p705
(dp706
g4
g21
sg6
I0
sg7
I3
sg8
F0.065000000000000002
sg9
g696
sg14
I2
sg15
I1
sg16
(lp707
(lp708
I12
ag31
aa(lp709
I4
ag12
aa(lp710
I10
ag63
aasbaF0.245
aa(lp711
(imodeler.Context
Context
p712
(dp713
g4
g5
sg6
I2
sg7
I3
sg8
F0.0
sg9
(lp714
(lp715
I11
ag12
aa(lp716
I11
ag63
aasg14
I1
sg15
I0
sg16
(lp717
sbaF0.22800000000000001
aa(lp718
(imodeler.Context
Context
p719
(dp720
g4
g5
sg6
I0
sg7
I3
sg8
F0.125
sg9
(lp721
(lp722
I13
ag31
aa(lp723
I10
ag12
aasg14
I2
sg15
I1
sg16
(lp724
(lp725
I11
ag34
aa(lp726
I13
ag63
aa(lp727
I5
ag31
aasbaF0.24099999999999999
aa(lp728
(imodeler.Context
Context
p729
(dp730
g4
g5
sg6
I2
sg7
I3
sg8
F0.10000000000000001
sg9
g714
sg14
I2
sg15
I2
sg16
(lp731
g725
ag726
ag727
asbaF0.099000000000000005
aa(lp732
(imodeler.Context
Context
p733
(dp734
g4
g5
sg6
I0
sg7
I3
sg8
F0.083000000000000004
sg9
g721
sg14
I2
sg15
I3
sg16
(lp735
g725
ag726
ag727
asbaF0.249
aa(lp736
(imodeler.Context
Context
p737
(dp738
g4
g5
sg6
I2
sg7
I3
sg8
F0.070999999999999994
sg9
g714
sg14
I2
sg15
I4
sg16
(lp739
g725
ag726
ag727
asbaF0.10000000000000001
aa(lp740
(imodeler.Context
Context
p741
(dp742
g4
g5
sg6
I0
sg7
I3
sg8
F0.063
sg9
g721
sg14
I2
sg15
I5
sg16
(lp743
g725
ag726
ag727
asbaF0.249
aa(lp744
(imodeler.Context
Context
p745
(dp746
g4
g5
sg6
I2
sg7
I3
sg8
F0.056000000000000001
sg9
g714
sg14
I2
sg15
I6
sg16
(lp747
g725
ag726
ag727
asbaF0.10299999999999999
aa(lp748
(imodeler.Context
Context
p749
(dp750
g4
g5
sg6
I0
sg7
I3
sg8
F0.050000000000000003
sg9
g721
sg14
I2
sg15
I7
sg16
(lp751
g725
ag726
ag727
asbaF0.27900000000000003
aa(lp752
(imodeler.Context
Context
p753
(dp754
g4
g21
sg6
I2
sg7
I3
sg8
F0.044999999999999998
sg9
g714
sg14
I2
sg15
I8
sg16
(lp755
g725
ag726
ag727
asbaF0.10000000000000001
aa(lp756
(imodeler.Context
Context
p757
(dp758
g4
g5
sg6
I0
sg7
I3
sg8
F0.043999999999999997
sg9
(lp759
(lp760
I8
ag31
aa(lp761
I8
ag12
aasg14
I3
sg15
I1
sg16
(lp762
(lp763
I14
ag63
aa(lp764
I7
ag31
aa(lp765
I4
ag12
aa(lp766
I6
ag31
aasbaF0.45500000000000002
aa(lp767
(imodeler.Context
Context
p768
(dp769
g4
g5
sg6
I1
sg7
I3
sg8
F0.041000000000000002
sg9
(lp770
(lp771
I8
ag34
aa(lp772
I14
ag12
aasg14
I3
sg15
I2
sg16
(lp773
g763
ag764
ag765
ag766
asbaF0.247
aa(lp774
(imodeler.Context
Context
p775
(dp776
g4
g5
sg6
I0
sg7
I3
sg8
F0.037999999999999999
sg9
g759
sg14
I3
sg15
I3
sg16
(lp777
g763
ag764
ag765
ag766
asbaF0.45500000000000002
aa(lp778
(imodeler.Context
Context
p779
(dp780
g4
g21
sg6
I0
sg7
I3
sg8
F0.20000000000000001
sg9
(lp781
(lp782
I6
ag34
aa(lp783
I6
ag31
aasg14
I2
sg15
I1
sg16
(lp784
(lp785
I2
ag31
aa(lp786
I2
ag34
aa(lp787
I11
ag63
aasbaF0.19600000000000001
aa(lp788
(imodeler.Context
Context
p789
(dp790
g4
g21
sg6
I2
sg7
I3
sg8
F0.0
sg9
(lp791
(lp792
I5
ag12
aa(lp793
I5
ag34
aasg14
I1
sg15
I0
sg16
(lp794
sbaF0.19
aa(lp795
(imodeler.Context
Context
p796
(dp797
g4
g21
sg6
I2
sg7
I3
sg8
F1.0
sg9
(lp798
(lp799
I4
ag12
aa(lp800
I2
ag63
aasg14
I1
sg15
I0
sg16
(lp801
sbaF0.094
aa(lp802
(imodeler.Context
Context
p803
(dp804
g4
g5
sg6
I1
sg7
I3
sg8
F0.0
sg9
(lp805
(lp806
I9
ag34
aa(lp807
I9
ag12
aasg14
I1
sg15
I0
sg16
(lp808
sbaF0.502
aa(lp809
(imodeler.Context
Context
p810
(dp811
g4
g5
sg6
I2
sg7
I3
sg8
F0.20000000000000001
sg9
(lp812
(lp813
I9
ag12
aa(lp814
I11
ag34
aasg14
I1
sg15
I1
sg16
(lp815
sbaF0.17499999999999999
aa(lp816
(imodeler.Context
Context
p817
(dp818
g4
g21
sg6
I2
sg7
I3
sg8
F0.090999999999999998
sg9
g812
sg14
I1
sg15
I3
sg16
(lp819
sbaF0.16
aa(lp820
(imodeler.Context
Context
p821
(dp822
g4
g21
sg6
I2
sg7
I3
sg8
F0.050999999999999997
sg9
g812
sg14
I3
sg15
I1
sg16
(lp823
(lp824
I13
ag12
aa(lp825
I5
ag12
aa(lp826
I13
ag63
aa(lp827
I5
ag63
aasbaF0.113
aa(lp828
(imodeler.Context
Context
p829
(dp830
g4
g21
sg6
I2
sg7
I3
sg8
F0.111
sg9
(lp831
(lp832
I8
ag63
aa(lp833
I6
ag63
aasg14
I4
sg15
I1
sg16
(lp834
(lp835
I8
ag12
aa(lp836
I5
ag31
aa(lp837
I8
ag34
aa(lp838
I11
ag34
aa(lp839
I13
ag34
aasbaF0.11899999999999999
aa(lp840
(imodeler.Context
Context
p841
(dp842
g4
g21
sg6
I2
sg7
I3
sg8
F0.375
sg9
(lp843
(lp844
I6
ag31
aa(lp845
I11
ag12
aasg14
I1
sg15
I1
sg16
(lp846
sbaF0.13900000000000001
aa(lp847
(imodeler.Context
Context
p848
(dp849
g4
g5
sg6
I2
sg7
I3
sg8
F0.11799999999999999
sg9
g843
sg14
I2
sg15
I1
sg16
(lp850
(lp851
I9
ag12
aa(lp852
I11
ag63
aa(lp853
I11
ag31
aasbaF0.186
aa(lp854
(imodeler.Context
Context
p855
(dp856
g4
g5
sg6
I2
sg7
I3
sg8
F0.080000000000000002
sg9
g843
sg14
I2
sg15
I3
sg16
(lp857
g851
ag852
ag853
asbaF0.20499999999999999
aa(lp858
(imodeler.Context
Context
p859
(dp860
g4
g5
sg6
I2
sg7
I3
sg8
F0.060999999999999999
sg9
g843
sg14
I2
sg15
I5
sg16
(lp861
g851
ag852
ag853
asbaF0.193
aa(lp862
(imodeler.Context
Context
p863
(dp864
g4
g5
sg6
I2
sg7
I3
sg8
F0.049000000000000002
sg9
g843
sg14
I2
sg15
I7
sg16
(lp865
g851
ag852
ag853
asbaF0.19
aa(lp866
(imodeler.Context
Context
p867
(dp868
g4
g5
sg6
I2
sg7
I3
sg8
F0.037999999999999999
sg9
g843
sg14
I3
sg15
I2
sg16
(lp869
g851
ag852
ag853
a(lp870
I14
ag34
aasbaF0.13200000000000001
aa(lp871
(imodeler.Context
Context
p872
(dp873
S'player_action'
p874
S'c'
p875
sS'player_nb'
p876
I2
sS'bet_round'
p877
I4
sS'pot_odds'
p878
F0.042999999999999997
sS'player_cards'
p879
(lp880
(lp881
I13
aS'H'
p882
aa(lp883
I4
aS'D'
p884
aasS'nb_players'
p885
I3
sS'nb_raises'
p886
I1
sS'shared_cards'
p887
(lp888
(lp889
I9
aS'S'
p890
aa(lp891
I13
ag884
aa(lp892
I14
ag890
aa(lp893
I9
ag882
aa(lp894
I12
ag890
aasbaF0.109
aa(lp895
(imodeler.Context
Context
p896
(dp897
g874
S'r'
p898
sg876
I0
sg877
I2
sg878
F0.20000000000000001
sg879
(lp899
(lp900
I7
aS'C'
p901
aa(lp902
I13
ag901
aasg885
I3
sg886
I1
sg887
(lp903
(lp904
I10
ag890
aa(lp905
I13
ag882
aa(lp906
I6
ag901
aasbaF0.17199999999999999
aa(lp907
(imodeler.Context
Context
p908
(dp909
g874
g898
sg876
I0
sg877
I2
sg878
F0.21099999999999999
sg879
(lp910
(lp911
I14
ag882
aa(lp912
I4
ag890
aasg885
I3
sg886
I2
sg887
(lp913
(lp914
I13
ag890
aa(lp915
I2
ag882
aa(lp916
I14
ag901
aasbaF0.19
aa(lp917
(imodeler.Context
Context
p918
(dp919
g874
g898
sg876
I1
sg877
I2
sg878
F0.16
sg879
(lp920
(lp921
I11
ag901
aa(lp922
I14
ag890
aasg885
I3
sg886
I3
sg887
(lp923
g914
ag915
ag916
asbaF0.27000000000000002
aa(lp924
(imodeler.Context
Context
p925
(dp926
g874
g898
sg876
I0
sg877
I2
sg878
F0.072999999999999995
sg879
g910
sg885
I3
sg886
I8
sg887
(lp927
g914
ag915
ag916
asbaF0.19
aa(lp928
(imodeler.Context
Context
p929
(dp930
g874
g898
sg876
I1
sg877
I2
sg878
F0.066000000000000003
sg879
g920
sg885
I3
sg886
I9
sg887
(lp931
g914
ag915
ag916
asbaF0.27000000000000002
aa(lp932
(imodeler.Context
Context
p933
(dp934
g874
g898
sg876
I0
sg877
I2
sg878
F0.055
sg879
g910
sg885
I3
sg886
I11
sg887
(lp935
g914
ag915
ag916
asbaF0.19
aa(lp936
(imodeler.Context
Context
p937
(dp938
g874
g875
sg876
I1
sg877
I2
sg878
F0.050999999999999997
sg879
g920
sg885
I3
sg886
I12
sg887
(lp939
g914
ag915
ag916
asbaF0.28000000000000003
aa(lp940
(imodeler.Context
Context
p941
(dp942
g874
g898
sg876
I0
sg877
I3
sg878
F0.021999999999999999
sg879
g910
sg885
I3
sg886
I2
sg887
(lp943
g914
ag915
ag916
a(lp944
I6
ag890
aasbaF0.20000000000000001
aa(lp945
(imodeler.Context
Context
p946
(dp947
g874
g875
sg876
I2
sg877
I3
sg878
F0.14299999999999999
sg879
(lp948
(lp949
I8
ag882
aa(lp950
I10
ag882
aasg885
I3
sg886
I1
sg887
(lp951
(lp952
I7
ag884
aa(lp953
I5
ag882
aa(lp954
I7
ag882
aa(lp955
I12
ag901
aasbaF0.13500000000000001
aa(lp956
(imodeler.Context
Context
p957
(dp958
g874
g898
sg876
I2
sg877
I1
sg878
F0.40000000000000002
sg879
(lp959
(lp960
I7
ag901
aa(lp961
I8
ag884
aasg885
I3
sg886
I1
sg887
(lp962
sbaF0.10000000000000001
aa(lp963
(imodeler.Context
Context
p964
(dp965
g874
g898
sg876
I1
sg877
I1
sg878
F0.222
sg879
(lp966
(lp967
I13
ag901
aa(lp968
I13
ag882
aasg885
I3
sg886
I2
sg887
(lp969
sbaF0.58999999999999997
aa(lp970
(imodeler.Context
Context
p971
(dp972
g874
g898
sg876
I2
sg877
I1
sg878
F0.154
sg879
g959
sg885
I3
sg886
I3
sg887
(lp973
sbaF0.14000000000000001
aa(lp974
(imodeler.Context
Context
p975
(dp976
g874
g875
sg876
I2
sg877
I1
sg878
F0.095000000000000001
sg879
g959
sg885
I3
sg886
I5
sg887
(lp977
sbaF0.089999999999999997
aa(lp978
(imodeler.Context
Context
p979
(dp980
g874
g875
sg876
I2
sg877
I1
sg878
F0.28599999999999998
sg879
(lp981
(lp982
I2
ag882
aa(lp983
I5
ag884
aasg885
I3
sg886
I1
sg887
(lp984
sbaF0.063
aa(lp985
(imodeler.Context
Context
p986
(dp987
g874
g898
sg876
I0
sg877
I1
sg878
F0.052999999999999999
sg879
(lp988
(lp989
I12
ag901
aa(lp990
I12
ag890
aasg885
I3
sg886
I6
sg887
(lp991
sbaF0.51000000000000001
aa(lp992
(imodeler.Context
Context
p993
(dp994
g874
g875
sg876
I1
sg877
I1
sg878
F0.090999999999999998
sg879
(lp995
(lp996
I10
ag901
aa(lp997
I13
ag882
aasg885
I3
sg886
I7
sg887
(lp998
sbaF0.23999999999999999
aa(lp999
(imodeler.Context
Context
p1000
(dp1001
g874
g898
sg876
I1
sg877
I2
sg878
F0.037999999999999999
sg879
g995
sg885
I3
sg886
I1
sg887
(lp1002
(lp1003
I10
ag884
aa(lp1004
I14
ag882
aa(lp1005
I6
ag901
aasbaF0.34499999999999997
aa(lp1006
(imodeler.Context
Context
p1007
(dp1008
g874
g898
sg876
I0
sg877
I2
sg878
F0.035000000000000003
sg879
g988
sg885
I3
sg886
I2
sg887
(lp1009
g1003
ag1004
ag1005
asbaF0.59999999999999998
aa(lp1010
(imodeler.Context
Context
p1011
(dp1012
g874
g898
sg876
I1
sg877
I3
sg878
F0.021000000000000001
sg879
g995
sg885
I3
sg886
I4
sg887
(lp1013
g1003
ag1004
ag1005
a(lp1014
I4
ag890
aasbaF0.28199999999999997
aa(lp1015
(imodeler.Context
Context
p1016
(dp1017
g874
g898
sg876
I0
sg877
I3
sg878
F0.02
sg879
g988
sg885
I3
sg886
I5
sg887
(lp1018
g1003
ag1004
ag1005
ag1014
asbaF0.505
aa(lp1019
(imodeler.Context
Context
p1020
(dp1021
g874
g875
sg876
I0
sg877
I4
sg878
F0.14299999999999999
sg879
(lp1022
(lp1023
I13
ag890
aa(lp1024
I9
ag901
aasg885
I3
sg886
I1
sg887
(lp1025
(lp1026
I14
ag882
aa(lp1027
I11
ag882
aa(lp1028
I7
ag884
aa(lp1029
I9
ag890
aa(lp1030
I10
ag884
aasbaF0.20200000000000001
aa(lp1031
(imodeler.Context
Context
p1032
(dp1033
g874
g898
sg876
I1
sg877
I4
sg878
F0.02
sg879
(lp1034
(lp1035
I12
ag884
aa(lp1036
I14
ag890
aasg885
I3
sg886
I1
sg887
(lp1037
(lp1038
I8
ag890
aa(lp1039
I14
ag882
aa(lp1040
I2
ag884
aa(lp1041
I5
ag882
aa(lp1042
I9
ag890
aasbaF0.22700000000000001
aa(lp1043
(imodeler.Context
Context
p1044
(dp1045
g874
g898
sg876
I1
sg877
I1
sg878
F0.20000000000000001
sg879
(lp1046
(lp1047
I9
ag890
aa(lp1048
I9
ag901
aasg885
I3
sg886
I1
sg887
(lp1049
sbaF0.40000000000000002
aa(lp1050
(imodeler.Context
Context
p1051
(dp1052
g874
g875
sg876
I2
sg877
I1
sg878
F0.14299999999999999
sg879
(lp1053
(lp1054
I10
ag884
aa(lp1055
I8
ag890
aasg885
I3
sg886
I2
sg887
(lp1056
sbaF0.155
aa(lp1057
(imodeler.Context
Context
p1058
(dp1059
g874
g875
sg876
I0
sg877
I1
sg878
F0.125
sg879
(lp1060
(lp1061
I3
ag882
aa(lp1062
I14
ag884
aasg885
I3
sg886
I2
sg887
(lp1063
sbaF0.17999999999999999
aa(lp1064
(imodeler.Context
Context
p1065
(dp1066
g874
g875
sg876
I1
sg877
I2
sg878
F0.129
sg879
g1046
sg885
I3
sg886
I2
sg887
(lp1067
(lp1068
I10
ag890
aa(lp1069
I5
ag890
aa(lp1070
I14
ag882
aasbaF0.34999999999999998
aa(lp1071
(imodeler.Context
Context
p1072
(dp1073
g874
g875
sg876
I1
sg877
I2
sg878
F0.092999999999999999
sg879
g1046
sg885
I3
sg886
I4
sg887
(lp1074
g1068
ag1069
ag1070
asbaF0.27400000000000002
aa(lp1075
(imodeler.Context
Context
p1076
(dp1077
g874
g875
sg876
I1
sg877
I2
sg878
F0.072999999999999995
sg879
g1046
sg885
I3
sg886
I6
sg887
(lp1078
g1068
ag1069
ag1070
asbaF0.27400000000000002
aa(lp1079
(imodeler.Context
Context
p1080
(dp1081
g874
g875
sg876
I1
sg877
I4
sg878
F0.043999999999999997
sg879
g1046
sg885
I3
sg886
I3
sg887
(lp1082
g1068
ag1069
ag1070
a(lp1083
I12
ag884
aa(lp1084
I10
ag882
aasbaF0.40000000000000002
aa(lp1085
(imodeler.Context
Context
p1086
(dp1087
g874
g875
sg876
I1
sg877
I4
sg878
F0.039
sg879
g1046
sg885
I3
sg886
I5
sg887
(lp1088
g1068
ag1069
ag1070
ag1083
ag1084
asbaF0.40000000000000002
aa(lp1089
(imodeler.Context
Context
p1090
(dp1091
g874
g875
sg876
I1
sg877
I4
sg878
F0.035000000000000003
sg879
g1046
sg885
I3
sg886
I7
sg887
(lp1092
g1068
ag1069
ag1070
ag1083
ag1084
asbaF0.40000000000000002
aa(lp1093
(imodeler.Context
Context
p1094
(dp1095
g874
g875
sg876
I0
sg877
I1
sg878
F0.154
sg879
(lp1096
(lp1097
I5
ag901
aa(lp1098
I13
ag890
aasg885
I3
sg886
I4
sg887
(lp1099
sbaF0.16
aa(lp1100
(imodeler.Context
Context
p1101
(dp1102
g874
g875
sg876
I0
sg877
I1
sg878
F0.105
sg879
g1096
sg885
I3
sg886
I6
sg887
(lp1103
sbaF0.16
aa(lp1104
(imodeler.Context
Context
p1105
(dp1106
g874
g875
sg876
I0
sg877
I1
sg878
F0.044999999999999998
sg879
g1096
sg885
I3
sg886
I7
sg887
(lp1107
sbaF0.16
aa(lp1108
(imodeler.Context
Context
p1109
(dp1110
g874
g898
sg876
I1
sg877
I2
sg878
F0.16
sg879
(lp1111
(lp1112
I11
ag890
aa(lp1113
I14
ag882
aasg885
I3
sg886
I2
sg887
(lp1114
(lp1115
I11
ag884
aa(lp1116
I3
ag890
aa(lp1117
I8
ag882
aasbaF0.25
aa(lp1118
(imodeler.Context
Context
p1119
(dp1120
g874
g898
sg876
I1
sg877
I2
sg878
F0.066000000000000003
sg879
g1111
sg885
I3
sg886
I8
sg887
(lp1121
g1115
ag1116
ag1117
asbaF0.245
aa(lp1122
(imodeler.Context
Context
p1123
(dp1124
g874
g898
sg876
I0
sg877
I2
sg878
F0.055
sg879
(lp1125
(lp1126
I10
ag890
aa(lp1127
I11
ag882
aasg885
I3
sg886
I10
sg887
(lp1128
g1115
ag1116
ag1117
asbaF0.34499999999999997
aa(lp1129
(imodeler.Context
Context
p1130
(dp1131
g874
g898
sg876
I1
sg877
I2
sg878
F0.050999999999999997
sg879
g1111
sg885
I3
sg886
I11
sg887
(lp1132
g1115
ag1116
ag1117
asbaF0.245
aa(lp1133
(imodeler.Context
Context
p1134
(dp1135
g874
g875
sg876
I0
sg877
I2
sg878
F0.023
sg879
g1125
sg885
I3
sg886
I12
sg887
(lp1136
g1115
ag1116
ag1117
asbaF0.34899999999999998
aa(lp1137
(imodeler.Context
Context
p1138
(dp1139
g874
g875
sg876
I0
sg877
I4
sg878
F0.20000000000000001
sg879
(lp1140
(lp1141
I9
ag901
aa(lp1142
I13
ag890
aasg885
I3
sg886
I1
sg887
(lp1143
(lp1144
I9
ag890
aa(lp1145
I10
ag901
aa(lp1146
I14
ag882
aa(lp1147
I14
ag884
aa(lp1148
I11
ag884
aasbaF0.20000000000000001
aa(lp1149
(imodeler.Context
Context
p1150
(dp1151
g874
g875
sg876
I0
sg877
I2
sg878
F0.129
sg879
(lp1152
(lp1153
I12
ag890
aa(lp1154
I9
ag901
aasg885
I3
sg886
I3
sg887
(lp1155
(lp1156
I10
ag890
aa(lp1157
I5
ag884
aa(lp1158
I14
ag884
aasbaF0.253
aa(lp1159
(imodeler.Context
Context
p1160
(dp1161
g874
g875
sg876
I0
sg877
I2
sg878
F0.092999999999999999
sg879
g1152
sg885
I3
sg886
I5
sg887
(lp1162
g1156
ag1157
ag1158
asbaF0.253
aa(lp1163
(imodeler.Context
Context
p1164
(dp1165
g874
g875
sg876
I0
sg877
I2
sg878
F0.072999999999999995
sg879
g1152
sg885
I3
sg886
I7
sg887
(lp1166
g1156
ag1157
ag1158
asbaF0.253
aa(lp1167
(imodeler.Context
Context
p1168
(dp1169
g874
g875
sg876
I0
sg877
I3
sg878
F0.029000000000000001
sg879
g1152
sg885
I3
sg886
I1
sg887
(lp1170
g1156
ag1157
ag1158
a(lp1171
I7
ag882
aasbaF0.20999999999999999
aa(lp1172
(imodeler.Context
Context
p1173
(dp1174
g874
g898
sg876
I2
sg877
I2
sg878
F0.21099999999999999
sg879
(lp1175
(lp1176
I11
ag890
aa(lp1177
I11
ag882
aasg885
I3
sg886
I2
sg887
(lp1178
(lp1179
I14
ag901
aa(lp1180
I10
ag882
aa(lp1181
I8
ag890
aasbaF0.5
aa(lp1182
(imodeler.Context
Context
p1183
(dp1184
g874
g898
sg876
I0
sg877
I2
sg878
F0.16
sg879
(lp1185
(lp1186
I14
ag882
aa(lp1187
I5
ag882
aasg885
I3
sg886
I3
sg887
(lp1188
g1179
ag1180
ag1181
asbaF0.20999999999999999
aa(lp1189
(imodeler.Context
Context
p1190
(dp1191
g874
g898
sg876
I1
sg877
I2
sg878
F0.129
sg879
(lp1192
(lp1193
I13
ag890
aa(lp1194
I14
ag890
aasg885
I3
sg886
I4
sg887
(lp1195
g1179
ag1180
ag1181
asbaF0.28999999999999998
aa(lp1196
(imodeler.Context
Context
p1197
(dp1198
g874
g898
sg876
I2
sg877
I2
sg878
F0.072999999999999995
sg879
g1175
sg885
I3
sg886
I8
sg887
(lp1199
g1179
ag1180
ag1181
asbaF0.5
aa(lp1200
(imodeler.Context
Context
p1201
(dp1202
g874
g898
sg876
I0
sg877
I2
sg878
F0.066000000000000003
sg879
g1185
sg885
I3
sg886
I9
sg887
(lp1203
g1179
ag1180
ag1181
asbaF0.20999999999999999
aa(lp1204
(imodeler.Context
Context
p1205
(dp1206
g874
g898
sg876
I1
sg877
I2
sg878
F0.059999999999999998
sg879
g1192
sg885
I3
sg886
I10
sg887
(lp1207
g1179
ag1180
ag1181
asbaF0.28999999999999998
aa(lp1208
(imodeler.Context
Context
p1209
(dp1210
g874
g898
sg876
I2
sg877
I2
sg878
F0.055
sg879
g1175
sg885
I3
sg886
I11
sg887
(lp1211
g1179
ag1180
ag1181
asbaF0.5
aa(lp1212
(imodeler.Context
Context
p1213
(dp1214
g874
g875
sg876
I2
sg877
I3
sg878
F0.043999999999999997
sg879
g1175
sg885
I3
sg886
I2
sg887
(lp1215
g1179
ag1180
ag1181
a(lp1216
I13
ag884
aasbaF0.5
aa(lp1217
(imodeler.Context
Context
p1218
(dp1219
g874
g875
sg876
I2
sg877
I3
sg878
F0.039
sg879
g1175
sg885
I3
sg886
I4
sg887
(lp1220
g1179
ag1180
ag1181
ag1216
asbaF0.5
aa(lp1221
(imodeler.Context
Context
p1222
(dp1223
g874
g875
sg876
I2
sg877
I3
sg878
F0.035000000000000003
sg879
g1175
sg885
I3
sg886
I6
sg887
(lp1224
g1179
ag1180
ag1181
ag1216
asbaF0.5
aa(lp1225
(imodeler.Context
Context
p1226
(dp1227
g874
g898
sg876
I0
sg877
I4
sg878
F0.023
sg879
g1185
sg885
I3
sg886
I8
sg887
(lp1228
g1179
ag1180
ag1181
ag1216
a(lp1229
I12
ag890
aasbaF0.20999999999999999
aa(lp1230
(imodeler.Context
Context
p1231
(dp1232
g874
g898
sg876
I1
sg877
I4
sg878
F0.021999999999999999
sg879
g1192
sg885
I3
sg886
I9
sg887
(lp1233
g1179
ag1180
ag1181
ag1216
ag1229
asbaF0.28999999999999998
aa(lp1234
(imodeler.Context
Context
p1235
(dp1236
g874
g898
sg876
I2
sg877
I4
sg878
F0.021000000000000001
sg879
g1175
sg885
I3
sg886
I10
sg887
(lp1237
g1179
ag1180
ag1181
ag1216
ag1229
asbaF0.5
aa(lp1238
(imodeler.Context
Context
p1239
(dp1240
g874
g898
sg876
I0
sg877
I4
sg878
F0.021000000000000001
sg879
g1185
sg885
I3
sg886
I11
sg887
(lp1241
g1179
ag1180
ag1181
ag1216
ag1229
asbaF0.20999999999999999
aa(lp1242
(imodeler.Context
Context
p1243
(dp1244
g874
g875
sg876
I1
sg877
I4
sg878
F0.02
sg879
g1192
sg885
I3
sg886
I12
sg887
(lp1245
g1179
ag1180
ag1181
ag1216
ag1229
asbaF0.28999999999999998
aa(lp1246
(imodeler.Context
Context
p1247
(dp1248
g874
g875
sg876
I2
sg877
I4
sg878
F0.01
sg879
g1175
sg885
I3
sg886
I12
sg887
(lp1249
g1179
ag1180
ag1181
ag1216
ag1229
asbaF0.34999999999999998
aa(lp1250
(imodeler.Context
Context
p1251
(dp1252
g874
g875
sg876
I0
sg877
I4
sg878
F0.050999999999999997
sg879
(lp1253
(lp1254
I5
ag884
aa(lp1255
I5
ag882
aasg885
I3
sg886
I2
sg887
(lp1256
(lp1257
I12
ag890
aa(lp1258
I11
ag901
aa(lp1259
I7
ag884
aa(lp1260
I10
ag901
aa(lp1261
I14
ag882
aasbaF0.26500000000000001
aa(lp1262
(imodeler.Context
Context
p1263
(dp1264
g874
g875
sg876
I0
sg877
I4
sg878
F0.043999999999999997
sg879
g1253
sg885
I3
sg886
I4
sg887
(lp1265
g1257
ag1258
ag1259
ag1260
ag1261
asbaF0.26500000000000001
aa(lp1266
(imodeler.Context
Context
p1267
(dp1268
g874
g875
sg876
I0
sg877
I4
sg878
F0.039
sg879
g1253
sg885
I3
sg886
I6
sg887
(lp1269
g1257
ag1258
ag1259
ag1260
ag1261
asbaF0.26500000000000001
aa(lp1270
(imodeler.Context
Context
p1271
(dp1272
g874
g898
sg876
I2
sg877
I3
sg878
F0.029999999999999999
sg879
(lp1273
(lp1274
I5
ag882
aa(lp1275
I9
ag890
aasg885
I3
sg886
I1
sg887
(lp1276
(lp1277
I11
ag890
aa(lp1278
I13
ag884
aa(lp1279
I11
ag901
aa(lp1280
I9
ag884
aasbaF0.24399999999999999
aa(lp1281
(imodeler.Context
Context
p1282
(dp1283
g874
g875
sg876
I0
sg877
I3
sg878
F0.055
sg879
(lp1284
(lp1285
I14
ag890
aa(lp1286
I5
ag901
aasg885
I3
sg886
I2
sg887
(lp1287
g1277
ag1278
ag1279
ag1280
asbaF0.20000000000000001
aa(lp1288
(imodeler.Context
Context
p1289
(dp1290
g874
g875
sg876
I0
sg877
I3
sg878
F0.047
sg879
g1284
sg885
I3
sg886
I4
sg887
(lp1291
g1277
ag1278
ag1279
ag1280
asbaF0.20000000000000001
aa(lp1292
(imodeler.Context
Context
p1293
(dp1294
g874
g875
sg876
I0
sg877
I3
sg878
F0.041000000000000002
sg879
g1284
sg885
I3
sg886
I6
sg887
(lp1295
g1277
ag1278
ag1279
ag1280
asbaF0.20000000000000001
aa(lp1296
(imodeler.Context
Context
p1297
(dp1298
g874
g875
sg876
I1
sg877
I2
sg878
F0.21099999999999999
sg879
(lp1299
(lp1300
I6
ag882
aa(lp1301
I6
ag890
aasg885
I3
sg886
I2
sg887
(lp1302
(lp1303
I12
ag882
aa(lp1304
I10
ag884
aa(lp1305
I13
ag882
aasbaF0.23000000000000001
aa(lp1306
(imodeler.Context
Context
p1307
(dp1308
g874
g898
sg876
I2
sg877
I1
sg878
F0.28599999999999998
sg879
(lp1309
(lp1310
I6
ag884
aa(lp1311
I7
ag890
aasg885
I3
sg886
I1
sg887
(lp1312
sbaF0.080000000000000002
aa(lp1313
(imodeler.Context
Context
p1314
(dp1315
g874
g898
sg876
I2
sg877
I2
sg878
F0.063
sg879
g1309
sg885
I3
sg886
I1
sg887
(lp1316
(lp1317
I7
ag882
aa(lp1318
I11
ag901
aa(lp1319
I5
ag901
aasbaF0.080000000000000002
aa(lp1320
(imodeler.Context
Context
p1321
(dp1322
g874
g898
sg876
I0
sg877
I1
sg878
F0.28599999999999998
sg879
(lp1323
(lp1324
I14
ag890
aa(lp1325
I14
ag882
aasg885
I3
sg886
I2
sg887
(lp1326
sbaF0.66000000000000003
aa(lp1327
(imodeler.Context
Context
p1328
(dp1329
g874
g898
sg876
I1
sg877
I1
sg878
F0.20000000000000001
sg879
(lp1330
(lp1331
I10
ag890
aa(lp1332
I10
ag884
aasg885
I3
sg886
I3
sg887
(lp1333
sbaF0.45000000000000001
aa(lp1334
(imodeler.Context
Context
p1335
(dp1336
g874
g898
sg876
I0
sg877
I1
sg878
F0.125
sg879
g1323
sg885
I3
sg886
I5
sg887
(lp1337
sbaF0.66000000000000003
aa(lp1338
(imodeler.Context
Context
p1339
(dp1340
g874
g898
sg876
I1
sg877
I1
sg878
F0.105
sg879
g1330
sg885
I3
sg886
I6
sg887
(lp1341
sbaF0.45000000000000001
aa(lp1342
(imodeler.Context
Context
p1343
(dp1344
g874
g898
sg876
I0
sg877
I1
sg878
F0.048000000000000001
sg879
g1323
sg885
I3
sg886
I7
sg887
(lp1345
sbaF0.66000000000000003
aa(lp1346
(imodeler.Context
Context
p1347
(dp1348
g874
g898
sg876
I1
sg877
I1
sg878
F0.042999999999999997
sg879
g1330
sg885
I3
sg886
I8
sg887
(lp1349
sbaF0.45000000000000001
aa(lp1350
(imodeler.Context
Context
p1351
(dp1352
g874
g898
sg876
I0
sg877
I1
sg878
F0.040000000000000001
sg879
g1323
sg885
I3
sg886
I9
sg887
(lp1353
sbaF0.66000000000000003
aa(lp1354
(imodeler.Context
Context
p1355
(dp1356
g874
g875
sg876
I1
sg877
I1
sg878
F0.036999999999999998
sg879
g1330
sg885
I3
sg886
I10
sg887
(lp1357
sbaF0.45000000000000001
aa(lp1358
(imodeler.Context
Context
p1359
(dp1360
g874
g898
sg876
I1
sg877
I2
sg878
F0.028000000000000001
sg879
g1330
sg885
I3
sg886
I3
sg887
(lp1361
(lp1362
I2
ag882
aa(lp1363
I13
ag882
aa(lp1364
I9
ag901
aasbaF0.45000000000000001
aa(lp1365
(imodeler.Context
Context
p1366
(dp1367
g874
g875
sg876
I0
sg877
I3
sg878
F0.20000000000000001
sg879
(lp1368
(lp1369
I11
ag890
aa(lp1370
I10
ag882
aasg885
I3
sg886
I1
sg887
(lp1371
(lp1372
I14
ag890
aa(lp1373
I5
ag890
aa(lp1374
I3
ag882
aa(lp1375
I4
ag882
aasbaF0.17999999999999999
aa(lp1376
(imodeler.Context
Context
p1377
(dp1378
g874
g875
sg876
I1
sg877
I3
sg878
F0.055
sg879
(lp1379
(lp1380
I12
ag890
aa(lp1381
I13
ag901
aasg885
I3
sg886
I3
sg887
(lp1382
(lp1383
I9
ag901
aa(lp1384
I14
ag890
aa(lp1385
I9
ag882
aa(lp1386
I6
ag901
aasbaF0.26300000000000001
aa(lp1387
(imodeler.Context
Context
p1388
(dp1389
g874
g875
sg876
I1
sg877
I3
sg878
F0.047
sg879
g1379
sg885
I3
sg886
I5
sg887
(lp1390
g1383
ag1384
ag1385
ag1386
asbaF0.26300000000000001
aa(lp1391
(imodeler.Context
Context
p1392
(dp1393
g874
g875
sg876
I1
sg877
I3
sg878
F0.041000000000000002
sg879
g1379
sg885
I3
sg886
I7
sg887
(lp1394
g1383
ag1384
ag1385
ag1386
asbaF0.26300000000000001
aa(lp1395
(imodeler.Context
Context
p1396
(dp1397
g874
g875
sg876
I1
sg877
I4
sg878
F0.035000000000000003
sg879
g1379
sg885
I3
sg886
I2
sg887
(lp1398
g1383
ag1384
ag1385
ag1386
a(lp1399
I5
ag901
aasbaF0.23999999999999999
aa(lp1400
(imodeler.Context
Context
p1401
(dp1402
g874
g875
sg876
I1
sg877
I4
sg878
F0.031
sg879
g1379
sg885
I3
sg886
I4
sg887
(lp1403
g1383
ag1384
ag1385
ag1386
ag1399
asbaF0.23999999999999999
aa(lp1404
(imodeler.Context
Context
p1405
(dp1406
g874
g875
sg876
I1
sg877
I4
sg878
F0.029000000000000001
sg879
g1379
sg885
I3
sg886
I6
sg887
(lp1407
g1383
ag1384
ag1385
ag1386
ag1399
asbaF0.23999999999999999
aa(lp1408
(imodeler.Context
Context
p1409
(dp1410
g874
g898
sg876
I2
sg877
I2
sg878
F0.20000000000000001
sg879
(lp1411
(lp1412
I3
ag882
aa(lp1413
I3
ag890
aasg885
I3
sg886
I1
sg887
(lp1414
(lp1415
I9
ag882
aa(lp1416
I5
ag882
aa(lp1417
I8
ag884
aasbaF0.17000000000000001
aa(lp1418
(imodeler.Context
Context
p1419
(dp1420
g874
g898
sg876
I1
sg877
I4
sg878
F0.025999999999999999
sg879
(lp1421
(lp1422
I12
ag884
aa(lp1423
I11
ag882
aasg885
I3
sg886
I8
sg887
(lp1424
(lp1425
I11
ag890
aa(lp1426
I13
ag890
aa(lp1427
I14
ag884
aa(lp1428
I3
ag882
aa(lp1429
I11
ag884
aasbaF0.20999999999999999
aa(lp1430
(imodeler.Context
Context
p1431
(dp1432
g874
g898
sg876
I2
sg877
I4
sg878
F0.025000000000000001
sg879
(lp1433
(lp1434
I10
ag882
aa(lp1435
I12
ag882
aasg885
I3
sg886
I9
sg887
(lp1436
g1425
ag1426
ag1427
ag1428
ag1429
asbaF0.20000000000000001
aa(lp1437
(imodeler.Context
Context
p1438
(dp1439
g874
g898
sg876
I0
sg877
I4
sg878
F0.025000000000000001
sg879
(lp1440
(lp1441
I14
ag901
aa(lp1442
I5
ag901
aasg885
I3
sg886
I10
sg887
(lp1443
g1425
ag1426
ag1427
ag1428
ag1429
asbaF0.20999999999999999
aa(lp1444
(imodeler.Context
Context
p1445
(dp1446
g874
g898
sg876
I1
sg877
I4
sg878
F0.024
sg879
g1421
sg885
I3
sg886
I11
sg887
(lp1447
g1425
ag1426
ag1427
ag1428
ag1429
asbaF0.20999999999999999
aa(lp1448
(imodeler.Context
Context
p1449
(dp1450
g874
g875
sg876
I0
sg877
I4
sg878
F0.010999999999999999
sg879
g1440
sg885
I3
sg886
I12
sg887
(lp1451
g1425
ag1426
ag1427
ag1428
ag1429
asbaF0.20999999999999999
aa(lp1452
(imodeler.Context
Context
p1453
(dp1454
g874
g898
sg876
I0
sg877
I3
sg878
F0.105
sg879
(lp1455
(lp1456
I6
ag884
aa(lp1457
I13
ag884
aasg885
I3
sg886
I1
sg887
(lp1458
(lp1459
I6
ag901
aa(lp1460
I7
ag890
aa(lp1461
I9
ag901
aa(lp1462
I6
ag882
aasbaF0.17000000000000001
aa(lp1463
(imodeler.Context
Context
p1464
(dp1465
g874
g875
sg876
I1
sg877
I3
sg878
F0.16
sg879
(lp1466
(lp1467
I10
ag890
aa(lp1468
I14
ag901
aasg885
I3
sg886
I2
sg887
(lp1469
g1459
ag1460
ag1461
ag1462
asbaF0.26000000000000001
aa(lp1470
(imodeler.Context
Context
p1471
(dp1472
g874
g875
sg876
I1
sg877
I3
sg878
F0.108
sg879
g1466
sg885
I3
sg886
I4
sg887
(lp1473
g1459
ag1460
ag1461
ag1462
asbaF0.26000000000000001
aa(lp1474
(imodeler.Context
Context
p1475
(dp1476
g874
g875
sg876
I1
sg877
I3
sg878
F0.082000000000000003
sg879
g1466
sg885
I3
sg886
I6
sg887
(lp1477
g1459
ag1460
ag1461
ag1462
asbaF0.26000000000000001
aa(lp1478
(imodeler.Context
Context
p1479
(dp1480
g874
g898
sg876
I0
sg877
I2
sg878
F0.060999999999999999
sg879
(lp1481
(lp1482
I13
ag890
aa(lp1483
I10
ag882
aasg885
I3
sg886
I1
sg887
(lp1484
(lp1485
I7
ag890
aa(lp1486
I6
ag890
aa(lp1487
I10
ag901
aasbaF0.39000000000000001
aa(lp1488
(imodeler.Context
Context
p1489
(dp1490
g874
g898
sg876
I0
sg877
I1
sg878
F0.25
sg879
(lp1491
(lp1492
I11
ag890
aa(lp1493
I11
ag882
aasg885
I3
sg886
I0
sg887
(lp1494
sbaF0.57999999999999996
aa(lp1495
(imodeler.Context
Context
p1496
(dp1497
g874
g898
sg876
I2
sg877
I1
sg878
F0.083000000000000004
sg879
(lp1498
(lp1499
I4
ag890
aa(lp1500
I14
ag884
aasg885
I3
sg886
I5
sg887
(lp1501
sbaF0.19
aa(lp1502
(imodeler.Context
Context
p1503
(dp1504
g874
g898
sg876
I2
sg877
I1
sg878
F0.063
sg879
g1498
sg885
I3
sg886
I7
sg887
(lp1505
sbaF0.19
aa(lp1506
(imodeler.Context
Context
p1507
(dp1508
g874
g875
sg876
I0
sg877
I1
sg878
F0.056000000000000001
sg879
g1491
sg885
I3
sg886
I8
sg887
(lp1509
sbaF0.5
aa(lp1510
(imodeler.Context
Context
p1511
(dp1512
g874
g898
sg876
I2
sg877
I2
sg878
F0.041000000000000002
sg879
g1498
sg885
I3
sg886
I2
sg887
(lp1513
(lp1514
I7
ag890
aa(lp1515
I13
ag901
aa(lp1516
I4
ag882
aasbaF0.19
aa(lp1517
(imodeler.Context
Context
p1518
(dp1519
g874
g898
sg876
I2
sg877
I2
sg878
F0.059999999999999998
sg879
(lp1520
(lp1521
I8
ag882
aa(lp1522
I8
ag890
aasg885
I3
sg886
I9
sg887
(lp1523
(lp1524
I13
ag890
aa(lp1525
I14
ag884
aa(lp1526
I5
ag890
aasbaF0.35999999999999999
aa(lp1527
(imodeler.Context
Context
p1528
(dp1529
g874
g875
sg876
I2
sg877
I2
sg878
F0.047
sg879
g1520
sg885
I3
sg886
I12
sg887
(lp1530
g1524
ag1525
ag1526
asbaF0.35999999999999999
aa(lp1531
(imodeler.Context
Context
p1532
(dp1533
g874
g898
sg876
I0
sg877
I3
sg878
F0.029999999999999999
sg879
(lp1534
(lp1535
I14
ag901
aa(lp1536
I6
ag884
aasg885
I3
sg886
I8
sg887
(lp1537
g1524
ag1525
ag1526
a(lp1538
I13
ag901
aasbaF0.20000000000000001
aa(lp1539
(imodeler.Context
Context
p1540
(dp1541
g874
g898
sg876
I1
sg877
I3
sg878
F0.029000000000000001
sg879
(lp1542
(lp1543
I5
ag884
aa(lp1544
I5
ag901
aasg885
I3
sg886
I9
sg887
(lp1545
g1524
ag1525
ag1526
ag1538
asbaF0.23000000000000001
aa(lp1546
(imodeler.Context
Context
p1547
(dp1548
g874
g898
sg876
I2
sg877
I3
sg878
F0.028000000000000001
sg879
g1520
sg885
I3
sg886
I10
sg887
(lp1549
g1524
ag1525
ag1526
ag1538
asbaF0.35999999999999999
aa(lp1550
(imodeler.Context
Context
p1551
(dp1552
g874
g898
sg876
I0
sg877
I3
sg878
F0.025999999999999999
sg879
g1534
sg885
I3
sg886
I11
sg887
(lp1553
g1524
ag1525
ag1526
ag1538
asbaF0.20000000000000001
aa(lp1554
(imodeler.Context
Context
p1555
(dp1556
g874
g875
sg876
I1
sg877
I3
sg878
F0.025000000000000001
sg879
g1542
sg885
I3
sg886
I12
sg887
(lp1557
g1524
ag1525
ag1526
ag1538
asbaF0.23000000000000001
aa(lp1558
(imodeler.Context
Context
p1559
(dp1560
g874
g875
sg876
I2
sg877
I3
sg878
F0.012999999999999999
sg879
g1520
sg885
I3
sg886
I12
sg887
(lp1561
g1524
ag1525
ag1526
ag1538
asbaF0.35999999999999999
aa(lp1562
(imodeler.Context
Context
p1563
(dp1564
g874
g875
sg876
I2
sg877
I4
sg878
F0.024
sg879
g1520
sg885
I3
sg886
I2
sg887
(lp1565
g1524
ag1525
ag1526
ag1538
a(lp1566
I4
ag884
aasbaF0.35999999999999999
aa(lp1567
(imodeler.Context
Context
p1568
(dp1569
g874
g875
sg876
I2
sg877
I4
sg878
F0.021999999999999999
sg879
g1520
sg885
I3
sg886
I4
sg887
(lp1570
g1524
ag1525
ag1526
ag1538
ag1566
asbaF0.35999999999999999
aa(lp1571
(imodeler.Context
Context
p1572
(dp1573
g874
g875
sg876
I2
sg877
I4
sg878
F0.021000000000000001
sg879
g1520
sg885
I3
sg886
I6
sg887
(lp1574
g1524
ag1525
ag1526
ag1538
ag1566
asbaF0.35999999999999999
aa(lp1575
(imodeler.Context
Context
p1576
(dp1577
g874
g898
sg876
I1
sg877
I2
sg878
F0.20000000000000001
sg879
(lp1578
(lp1579
I12
ag884
aa(lp1580
I11
ag884
aasg885
I3
sg886
I1
sg887
(lp1581
(lp1582
I12
ag882
aa(lp1583
I13
ag890
aa(lp1584
I5
ag884
aasbaF0.20999999999999999
aa(lp1585
(imodeler.Context
Context
p1586
(dp1587
g874
g875
sg876
I1
sg877
I1
sg878
F0.037999999999999999
sg879
(lp1588
(lp1589
I13
ag890
aa(lp1590
I10
ag882
aasg885
I3
sg886
I8
sg887
(lp1591
sbaF0.23999999999999999
aa(lp1592
(imodeler.Context
Context
p1593
(dp1594
g874
g898
sg876
I1
sg877
I3
sg878
F0.012
sg879
g1588
sg885
I3
sg886
I6
sg887
(lp1595
(lp1596
I10
ag890
aa(lp1597
I6
ag882
aa(lp1598
I5
ag884
aa(lp1599
I9
ag884
aasbaF0.23999999999999999
aa.