(lp0
(lp1
(lp2
(lp3
I2
aS'H'
p4
aa(lp5
I3
ag4
aaa(lp6
F0.089999999999999997
aF0.029999999999999999
aF0.01
aF0.0
aF0.0
aF0.0
aF0.0
aF0.0
aF0.0
aaa(lp7
(lp8
g3
a(lp9
I4
ag4
aaa(lp10
F0.12
aF0.040000000000000001
aF0.02
aF0.01
aF0.0
aF0.0
aF0.0
aF0.0
aF0.0
aaa(lp11
(lp12
g3
a(lp13
I5
ag4
aaa(lp14
F0.02
aF0.0
aF0.0
aF0.0
aF0.0
aF0.0
aF0.0
aF0.0
aF0.0
aaa(lp15
(lp16
g3
a(lp17
I6
ag4
aaa(lp18
F0.01
aF0.0
aF0.0
aF0.0
aF0.0
aF0.0
aF0.0
aF0.0
aF0.0
aaa(lp19
(lp20
g3
a(lp21
I7
ag4
aaa(lp22
F0.20000000000000001
aF0.089999999999999997
aF0.040000000000000001
aF0.02
aF0.01
aF0.0
aF0.0
aF0.0
aF0.0
aaa(lp23
(lp24
g3
a(lp25
I8
ag4
aaa(lp26
F0.089999999999999997
aF0.029999999999999999
aF0.01
aF0.0
aF0.0
aF0.0
aF0.0
aF0.0
aF0.0
aaa(lp27
(lp28
g3
a(lp29
I9
ag4
aaa(lp30
F0.059999999999999998
aF0.02
aF0.0
aF0.0
aF0.0
aF0.0
aF0.0
aF0.0
aF0.0
aaa(lp31
(lp32
g3
a(lp33
I10
ag4
aaa(lp34
F0.35999999999999999
aF0.22
aF0.13
aF0.080000000000000002
aF0.050000000000000003
aF0.029999999999999999
aF0.02
aF0.01
aF0.01
aaa(lp35
(lp36
g3
a(lp37
I11
ag4
aaa(lp38
F0.48999999999999999
aF0.34000000000000002
aF0.23999999999999999
aF0.17000000000000001
aF0.12
aF0.080000000000000002
aF0.059999999999999998
aF0.040000000000000001
aF0.029999999999999999
aaa(lp39
(lp40
g3
a(lp41
I12
ag4
aaa(lp42
F0.20000000000000001
aF0.089999999999999997
aF0.040000000000000001
aF0.02
aF0.01
aF0.0
aF0.0
aF0.0
aF0.0
aaa(lp43
(lp44
g3
a(lp45
I13
ag4
aaa(lp46
F0.35999999999999999
aF0.22
aF0.13
aF0.080000000000000002
aF0.050000000000000003
aF0.029999999999999999
aF0.02
aF0.01
aF0.01
aaa(lp47
(lp48
g3
a(lp49
I14
ag4
aaa(lp50
F0.35999999999999999
aF0.22
aF0.13
aF0.080000000000000002
aF0.050000000000000003
aF0.029999999999999999
aF0.02
aF0.01
aF0.01
aaa(lp51
(lp52
g3
a(lp53
I2
aS'S'
p54
aaa(lp55
F0.48999999999999999
aF0.34000000000000002
aF0.23999999999999999
aF0.17000000000000001
aF0.12
aF0.080000000000000002
aF0.059999999999999998
aF0.040000000000000001
aF0.029999999999999999
aaa(lp56
(lp57
g3
a(lp58
I3
ag54
aaa(lp59
F0.089999999999999997
aF0.029999999999999999
aF0.01
aF0.0
aF0.0
aF0.0
aF0.0
aF0.0
aF0.0
aaa(lp60
(lp61
g3
a(lp62
I4
ag54
aaa(lp63
F0.16
aF0.059999999999999998
aF0.029999999999999999
aF0.01
aF0.0
aF0.0
aF0.0
aF0.0
aF0.0
aaa(lp64
(lp65
g3
a(lp66
I5
ag54
aaa(lp67
F0.02
aF0.0
aF0.0
aF0.0
aF0.0
aF0.0
aF0.0
aF0.0
aF0.0
aaa(lp68
(lp69
g3
a(lp70
I6
ag54
aaa(lp71
F0.20000000000000001
aF0.089999999999999997
aF0.040000000000000001
aF0.02
aF0.01
aF0.0
aF0.0
aF0.0
aF0.0
aaa(lp72
(lp73
g3
a(lp74
I7
ag54
aaa(lp75
F0.16
aF0.059999999999999998
aF0.029999999999999999
aF0.01
aF0.0
aF0.0
aF0.0
aF0.0
aF0.0
aaa(lp76
(lp77
g3
a(lp78
I8
ag54
aaa(lp79
F0.20000000000000001
aF0.089999999999999997
aF0.040000000000000001
aF0.02
aF0.01
aF0.0
aF0.0
aF0.0
aF0.0
aaa(lp80
(lp81
g3
a(lp82
I9
ag54
aaa(lp83
F0.040000000000000001
aF0.01
aF0.0
aF0.0
aF0.0
aF0.0
aF0.0
aF0.0
aF0.0
aaa(lp84
(lp85
g3
a(lp86
I10
ag54
aaa(lp87
F0.35999999999999999
aF0.22
aF0.13
aF0.080000000000000002
aF0.050000000000000003
aF0.029999999999999999
aF0.02
aF0.01
aF0.01
aaa(lp88
(lp89
g3
a(lp90
I11
ag54
aaa(lp91
F0.20000000000000001
aF0.089999999999999997
aF0.040000000000000001
aF0.02
aF0.01
aF0.0
aF0.0
aF0.0
aF0.0
aaa(lp92
(lp93
g3
a(lp94
I12
ag54
aaa(lp95
F0.16
aF0.059999999999999998
aF0.029999999999999999
aF0.01
aF0.0
aF0.0
aF0.0
aF0.0
aF0.0
aaa(lp96
(lp97
g3
a(lp98
I13
ag54
aaa(lp99
F0.089999999999999997
aF0.029999999999999999
aF0.01
aF0.0
aF0.0
aF0.0
aF0.0
aF0.0
aF0.0
aaa(lp100
(lp101
g3
a(lp102
I14
ag54
aaa(lp103
F0.35999999999999999
aF0.22
aF0.13
aF0.080000000000000002
aF0.050000000000000003
aF0.029999999999999999
aF0.02
aF0.01
aF0.01
aaa(lp104
(lp105
g5
ag9
aa(lp106
F0.040000000000000001
aF0.01
aF0.0
aF0.0
aF0.0
aF0.0
aF0.0
aF0.0
aF0.0
aaa(lp107
(lp108
g5
ag13
aa(lp109
F0.089999999999999997
aF0.029999999999999999
aF0.01
aF0.0
aF0.0
aF0.0
aF0.0
aF0.0
aF0.0
aaa(lp110
(lp111
g5
ag17
aa(lp112
F0.29999999999999999
aF0.17000000000000001
aF0.089999999999999997
aF0.050000000000000003
aF0.029999999999999999
aF0.02
aF0.01
aF0.0
aF0.0
aaa(lp113
(lp114
g5
ag21
aa(lp115
F0.20000000000000001
aF0.089999999999999997
aF0.040000000000000001
aF0.02
aF0.01
aF0.0
aF0.0
aF0.0
aF0.0
aaa(lp116
(lp117
g5
ag25
aa(lp118
F0.12
aF0.040000000000000001
aF0.02
aF0.01
aF0.0
aF0.0
aF0.0
aF0.0
aF0.0
aaa(lp119
(lp120
g5
ag29
aa(lp121
F0.089999999999999997
aF0.029999999999999999
aF0.01
aF0.0
aF0.0
aF0.0
aF0.0
aF0.0
aF0.0
aaa(lp122
(lp123
g5
ag33
aa(lp124
F0.35999999999999999
aF0.22
aF0.13
aF0.080000000000000002
aF0.050000000000000003
aF0.029999999999999999
aF0.02
aF0.01
aF0.01
aaa(lp125
(lp126
g5
ag37
aa(lp127
F0.25
aF0.13
aF0.059999999999999998
aF0.029999999999999999
aF0.02
aF0.01
aF0.0
aF0.0
aF0.0
aaa(lp128
(lp129
g5
ag41
aa(lp130
F0.25
aF0.13
aF0.059999999999999998
aF0.029999999999999999
aF0.02
aF0.01
aF0.0
aF0.0
aF0.0
aaa(lp131
(lp132
g5
ag45
aa(lp133
F0.35999999999999999
aF0.22
aF0.13
aF0.080000000000000002
aF0.050000000000000003
aF0.029999999999999999
aF0.02
aF0.01
aF0.01
aaa(lp134
(lp135
g5
ag49
aa(lp136
F0.81000000000000005
aF0.72999999999999998
aF0.66000000000000003
aF0.58999999999999997
aF0.53000000000000003
aF0.47999999999999998
aF0.42999999999999999
aF0.39000000000000001
aF0.34999999999999998
aaa(lp137
(lp138
g5
ag58
aa(lp139
F0.48999999999999999
aF0.34000000000000002
aF0.23999999999999999
aF0.17000000000000001
aF0.12
aF0.080000000000000002
aF0.059999999999999998
aF0.040000000000000001
aF0.029999999999999999
aaa(lp140
(lp141
g5
ag62
aa(lp142
F0.16
aF0.059999999999999998
aF0.029999999999999999
aF0.01
aF0.0
aF0.0
aF0.0
aF0.0
aF0.0
aaa(lp143
(lp144
g5
ag66
aa(lp145
F0.040000000000000001
aF0.01
aF0.0
aF0.0
aF0.0
aF0.0
aF0.0
aF0.0
aF0.0
aaa(lp146
(lp147
g5
ag70
aa(lp148
F0.089999999999999997
aF0.029999999999999999
aF0.01
aF0.0
aF0.0
aF0.0
aF0.0
aF0.0
aF0.0
aaa(lp149
(lp150
g5
ag74
aa(lp151
F0.20000000000000001
aF0.089999999999999997
aF0.040000000000000001
aF0.02
aF0.01
aF0.0
aF0.0
aF0.0
aF0.0
aaa(lp152
(lp153
g5
ag78
aa(lp154
F0.35999999999999999
aF0.22
aF0.13
aF0.080000000000000002
aF0.050000000000000003
aF0.029999999999999999
aF0.02
aF0.01
aF0.01
aaa(lp155
(lp156
g5
ag82
aa(lp157
F0.12
aF0.040000000000000001
aF0.02
aF0.01
aF0.0
aF0.0
aF0.0
aF0.0
aF0.0
aaa(lp158
(lp159
g5
ag86
aa(lp160
F0.25
aF0.13
aF0.059999999999999998
aF0.029999999999999999
aF0.02
aF0.01
aF0.0
aF0.0
aF0.0
aaa(lp161
(lp162
g5
ag90
aa(lp163
F0.25
aF0.13
aF0.059999999999999998
aF0.029999999999999999
aF0.02
aF0.01
aF0.0
aF0.0
aF0.0
aaa(lp164
(lp165
g5
ag94
aa(lp166
F0.48999999999999999
aF0.34000000000000002
aF0.23999999999999999
aF0.17000000000000001
aF0.12
aF0.080000000000000002
aF0.059999999999999998
aF0.040000000000000001
aF0.029999999999999999
aaa(lp167
(lp168
g5
ag98
aa(lp169
F0.12
aF0.040000000000000001
aF0.02
aF0.01
aF0.0
aF0.0
aF0.0
aF0.0
aF0.0
aaa(lp170
(lp171
g5
ag102
aa(lp172
F0.48999999999999999
aF0.34000000000000002
aF0.23999999999999999
aF0.17000000000000001
aF0.12
aF0.080000000000000002
aF0.059999999999999998
aF0.040000000000000001
aF0.029999999999999999
aaa(lp173
(lp174
g9
ag13
aa(lp175
F0.20000000000000001
aF0.089999999999999997
aF0.040000000000000001
aF0.02
aF0.01
aF0.0
aF0.0
aF0.0
aF0.0
aaa(lp176
(lp177
g9
ag17
aa(lp178
F0.29999999999999999
aF0.17000000000000001
aF0.089999999999999997
aF0.050000000000000003
aF0.029999999999999999
aF0.02
aF0.01
aF0.0
aF0.0
aaa(lp179
(lp180
g9
ag21
aa(lp181
F0.059999999999999998
aF0.02
aF0.0
aF0.0
aF0.0
aF0.0
aF0.0
aF0.0
aF0.0
aaa(lp182
(lp183
g9
ag25
aa(lp184
F0.16
aF0.059999999999999998
aF0.029999999999999999
aF0.01
aF0.0
aF0.0
aF0.0
aF0.0
aF0.0
aaa(lp185
(lp186
g9
ag29
aa(lp187
F0.12
aF0.040000000000000001
aF0.02
aF0.01
aF0.0
aF0.0
aF0.0
aF0.0
aF0.0
aaa(lp188
(lp189
g9
ag33
aa(lp190
F0.35999999999999999
aF0.22
aF0.13
aF0.080000000000000002
aF0.050000000000000003
aF0.029999999999999999
aF0.02
aF0.01
aF0.01
aaa(lp191
(lp192
g9
ag37
aa(lp193
F0.35999999999999999
aF0.22
aF0.13
aF0.080000000000000002
aF0.050000000000000003
aF0.029999999999999999
aF0.02
aF0.01
aF0.01
aaa(lp194
(lp195
g9
ag41
aa(lp196
F0.41999999999999998
aF0.27000000000000002
aF0.17999999999999999
aF0.12
aF0.080000000000000002
aF0.050000000000000003
aF0.029999999999999999
aF0.02
aF0.01
aaa(lp197
(lp198
g9
ag45
aa(lp199
F0.16
aF0.059999999999999998
aF0.029999999999999999
aF0.01
aF0.0
aF0.0
aF0.0
aF0.0
aF0.0
aaa(lp200
(lp201
g9
ag49
aa(lp202
F0.56000000000000005
aF0.41999999999999998
aF0.32000000000000001
aF0.23999999999999999
aF0.17999999999999999
aF0.13
aF0.10000000000000001
aF0.080000000000000002
aF0.059999999999999998
aaa(lp203
(lp204
g9
ag62
aa(lp205
F0.25
aF0.13
aF0.059999999999999998
aF0.029999999999999999
aF0.02
aF0.01
aF0.0
aF0.0
aF0.0
aaa(lp206
(lp207
g9
ag66
aa(lp208
F0.16
aF0.059999999999999998
aF0.029999999999999999
aF0.01
aF0.0
aF0.0
aF0.0
aF0.0
aF0.0
aaa(lp209
(lp210
g9
ag70
aa(lp211
F0.16
aF0.059999999999999998
aF0.029999999999999999
aF0.01
aF0.0
aF0.0
aF0.0
aF0.0
aF0.0
aaa(lp212
(lp213
g9
ag74
aa(lp214
F0.0
aF0.0
aF0.0
aF0.0
aF0.0
aF0.0
aF0.0
aF0.0
aF0.0
aaa(lp215
(lp216
g9
ag78
aa(lp217
F0.040000000000000001
aF0.01
aF0.0
aF0.0
aF0.0
aF0.0
aF0.0
aF0.0
aF0.0
aaa(lp218
(lp219
g9
ag82
aa(lp220
F0.56000000000000005
aF0.41999999999999998
aF0.32000000000000001
aF0.23999999999999999
aF0.17999999999999999
aF0.13
aF0.10000000000000001
aF0.080000000000000002
aF0.059999999999999998
aaa(lp221
(lp222
g9
ag86
aa(lp223
F0.01
aF0.0
aF0.0
aF0.0
aF0.0
aF0.0
aF0.0
aF0.0
aF0.0
aaa(lp224
(lp225
g9
ag90
aa(lp226
F0.16
aF0.059999999999999998
aF0.029999999999999999
aF0.01
aF0.0
aF0.0
aF0.0
aF0.0
aF0.0
aaa(lp227
(lp228
g9
ag94
aa(lp229
F0.040000000000000001
aF0.01
aF0.0
aF0.0
aF0.0
aF0.0
aF0.0
aF0.0
aF0.0
aaa(lp230
(lp231
g9
ag98
aa(lp232
F0.56000000000000005
aF0.41999999999999998
aF0.32000000000000001
aF0.23999999999999999
aF0.17999999999999999
aF0.13
aF0.10000000000000001
aF0.080000000000000002
aF0.059999999999999998
aaa(lp233
(lp234
g9
ag102
aa(lp235
F0.71999999999999997
aF0.60999999999999999
aF0.52000000000000002
aF0.44
aF0.38
aF0.32000000000000001
aF0.27000000000000002
aF0.23000000000000001
aF0.20000000000000001
aaa(lp236
(lp237
g13
ag17
aa(lp238
F0.12
aF0.040000000000000001
aF0.02
aF0.01
aF0.0
aF0.0
aF0.0
aF0.0
aF0.0
aaa(lp239
(lp240
g13
ag21
aa(lp241
F0.059999999999999998
aF0.02
aF0.0
aF0.0
aF0.0
aF0.0
aF0.0
aF0.0
aF0.0
aaa(lp242
(lp243
g13
ag25
aa(lp244
F0.16
aF0.059999999999999998
aF0.029999999999999999
aF0.01
aF0.0
aF0.0
aF0.0
aF0.0
aF0.0
aaa(lp245
(lp246
g13
ag29
aa(lp247
F0.25
aF0.13
aF0.059999999999999998
aF0.029999999999999999
aF0.02
aF0.01
aF0.0
aF0.0
aF0.0
aaa(lp248
(lp249
g13
ag33
aa(lp250
F0.25
aF0.13
aF0.059999999999999998
aF0.029999999999999999
aF0.02
aF0.01
aF0.0
aF0.0
aF0.0
aaa(lp251
(lp252
g13
ag37
aa(lp253
F0.059999999999999998
aF0.02
aF0.0
aF0.0
aF0.0
aF0.0
aF0.0
aF0.0
aF0.0
aaa(lp254
(lp255
g13
ag41
aa(lp256
F0.20000000000000001
aF0.089999999999999997
aF0.040000000000000001
aF0.02
aF0.01
aF0.0
aF0.0
aF0.0
aF0.0
aaa(lp257
(lp258
g13
ag45
aa(lp259
F0.64000000000000001
aF0.51000000000000001
aF0.40999999999999998
aF0.33000000000000002
aF0.26000000000000001
aF0.20999999999999999
aF0.17000000000000001
aF0.13
aF0.11
aaa(lp260
(lp261
g13
ag49
aa(lp262
F0.20000000000000001
aF0.089999999999999997
aF0.040000000000000001
aF0.02
aF0.01
aF0.0
aF0.0
aF0.0
aF0.0
aaa(lp263
(lp264
g13
ag66
aa(lp265
F0.48999999999999999
aF0.34000000000000002
aF0.23999999999999999
aF0.17000000000000001
aF0.12
aF0.080000000000000002
aF0.059999999999999998
aF0.040000000000000001
aF0.029999999999999999
aaa(lp266
(lp267
g13
ag70
aa(lp268
F0.089999999999999997
aF0.029999999999999999
aF0.01
aF0.0
aF0.0
aF0.0
aF0.0
aF0.0
aF0.0
aaa(lp269
(lp270
g13
ag74
aa(lp271
F0.040000000000000001
aF0.01
aF0.0
aF0.0
aF0.0
aF0.0
aF0.0
aF0.0
aF0.0
aaa(lp272
(lp273
g13
ag78
aa(lp274
F0.12
aF0.040000000000000001
aF0.02
aF0.01
aF0.0
aF0.0
aF0.0
aF0.0
aF0.0
aaa(lp275
(lp276
g13
ag82
aa(lp277
F0.29999999999999999
aF0.17000000000000001
aF0.089999999999999997
aF0.050000000000000003
aF0.029999999999999999
aF0.02
aF0.01
aF0.0
aF0.0
aaa(lp278
(lp279
g13
ag86
aa(lp280
F0.25
aF0.13
aF0.059999999999999998
aF0.029999999999999999
aF0.02
aF0.01
aF0.0
aF0.0
aF0.0
aaa(lp281
(lp282
g13
ag90
aa(lp283
F0.089999999999999997
aF0.029999999999999999
aF0.01
aF0.0
aF0.0
aF0.0
aF0.0
aF0.0
aF0.0
aaa(lp284
(lp285
g13
ag94
aa(lp286
F0.48999999999999999
aF0.34000000000000002
aF0.23999999999999999
aF0.17000000000000001
aF0.12
aF0.080000000000000002
aF0.059999999999999998
aF0.040000000000000001
aF0.029999999999999999
aaa(lp287
(lp288
g13
ag98
aa(lp289
F0.29999999999999999
aF0.17000000000000001
aF0.089999999999999997
aF0.050000000000000003
aF0.029999999999999999
aF0.02
aF0.01
aF0.0
aF0.0
aaa(lp290
(lp291
g13
ag102
aa(lp292
F0.25
aF0.13
aF0.059999999999999998
aF0.029999999999999999
aF0.02
aF0.01
aF0.0
aF0.0
aF0.0
aaa(lp293
(lp294
g17
ag21
aa(lp295
F0.16
aF0.059999999999999998
aF0.029999999999999999
aF0.01
aF0.0
aF0.0
aF0.0
aF0.0
aF0.0
aaa(lp296
(lp297
g17
ag25
aa(lp298
F0.81000000000000005
aF0.72999999999999998
aF0.66000000000000003
aF0.58999999999999997
aF0.53000000000000003
aF0.47999999999999998
aF0.42999999999999999
aF0.39000000000000001
aF0.34999999999999998
aaa(lp299
(lp300
g17
ag29
aa(lp301
F0.059999999999999998
aF0.02
aF0.0
aF0.0
aF0.0
aF0.0
aF0.0
aF0.0
aF0.0
aaa(lp302
(lp303
g17
ag33
aa(lp304
F0.48999999999999999
aF0.34000000000000002
aF0.23999999999999999
aF0.17000000000000001
aF0.12
aF0.080000000000000002
aF0.059999999999999998
aF0.040000000000000001
aF0.029999999999999999
aaa(lp305
(lp306
g17
ag37
aa(lp307
F0.35999999999999999
aF0.22
aF0.13
aF0.080000000000000002
aF0.050000000000000003
aF0.029999999999999999
aF0.02
aF0.01
aF0.01
aaa(lp308
(lp309
g17
ag41
aa(lp310
F0.16
aF0.059999999999999998
aF0.029999999999999999
aF0.01
aF0.0
aF0.0
aF0.0
aF0.0
aF0.0
aaa(lp311
(lp312
g17
ag45
aa(lp313
F0.25
aF0.13
aF0.059999999999999998
aF0.029999999999999999
aF0.02
aF0.01
aF0.0
aF0.0
aF0.0
aaa(lp314
(lp315
g17
ag49
aa(lp316
F0.35999999999999999
aF0.22
aF0.13
aF0.080000000000000002
aF0.050000000000000003
aF0.029999999999999999
aF0.02
aF0.01
aF0.01
aaa(lp317
(lp318
g17
ag70
aa(lp319
F0.35999999999999999
aF0.22
aF0.13
aF0.080000000000000002
aF0.050000000000000003
aF0.029999999999999999
aF0.02
aF0.01
aF0.01
aaa(lp320
(lp321
g17
ag74
aa(lp322
F0.48999999999999999
aF0.34000000000000002
aF0.23999999999999999
aF0.17000000000000001
aF0.12
aF0.080000000000000002
aF0.059999999999999998
aF0.040000000000000001
aF0.029999999999999999
aaa(lp323
(lp324
g17
ag78
aa(lp325
F0.16
aF0.059999999999999998
aF0.029999999999999999
aF0.01
aF0.0
aF0.0
aF0.0
aF0.0
aF0.0
aaa(lp326
(lp327
g17
ag82
aa(lp328
F0.16
aF0.059999999999999998
aF0.029999999999999999
aF0.01
aF0.0
aF0.0
aF0.0
aF0.0
aF0.0
aaa(lp329
(lp330
g17
ag86
aa(lp331
F0.040000000000000001
aF0.01
aF0.0
aF0.0
aF0.0
aF0.0
aF0.0
aF0.0
aF0.0
aaa(lp332
(lp333
g17
ag90
aa(lp334
F0.16
aF0.059999999999999998
aF0.029999999999999999
aF0.01
aF0.0
aF0.0
aF0.0
aF0.0
aF0.0
aaa(lp335
(lp336
g17
ag94
aa(lp337
F0.29999999999999999
aF0.17000000000000001
aF0.089999999999999997
aF0.050000000000000003
aF0.029999999999999999
aF0.02
aF0.01
aF0.0
aF0.0
aaa(lp338
(lp339
g17
ag98
aa(lp340
F0.35999999999999999
aF0.22
aF0.13
aF0.080000000000000002
aF0.050000000000000003
aF0.029999999999999999
aF0.02
aF0.01
aF0.01
aaa(lp341
(lp342
g17
ag102
aa(lp343
F0.48999999999999999
aF0.34000000000000002
aF0.23999999999999999
aF0.17000000000000001
aF0.12
aF0.080000000000000002
aF0.059999999999999998
aF0.040000000000000001
aF0.029999999999999999
aaa(lp344
(lp345
g21
ag25
aa(lp346
F0.01
aF0.0
aF0.0
aF0.0
aF0.0
aF0.0
aF0.0
aF0.0
aF0.0
aaa(lp347
(lp348
g21
ag29
aa(lp349
F0.040000000000000001
aF0.01
aF0.0
aF0.0
aF0.0
aF0.0
aF0.0
aF0.0
aF0.0
aaa(lp350
(lp351
g21
ag33
aa(lp352
F0.41999999999999998
aF0.27000000000000002
aF0.17999999999999999
aF0.12
aF0.080000000000000002
aF0.050000000000000003
aF0.029999999999999999
aF0.02
aF0.01
aaa(lp353
(lp354
g21
ag37
aa(lp355
F0.48999999999999999
aF0.34000000000000002
aF0.23999999999999999
aF0.17000000000000001
aF0.12
aF0.080000000000000002
aF0.059999999999999998
aF0.040000000000000001
aF0.029999999999999999
aaa(lp356
(lp357
g21
ag41
aa(lp358
F0.25
aF0.13
aF0.059999999999999998
aF0.029999999999999999
aF0.02
aF0.01
aF0.0
aF0.0
aF0.0
aaa(lp359
(lp360
g21
ag45
aa(lp361
F0.48999999999999999
aF0.34000000000000002
aF0.23999999999999999
aF0.17000000000000001
aF0.12
aF0.080000000000000002
aF0.059999999999999998
aF0.040000000000000001
aF0.029999999999999999
aaa(lp362
(lp363
g21
ag49
aa(lp364
F0.48999999999999999
aF0.34000000000000002
aF0.23999999999999999
aF0.17000000000000001
aF0.12
aF0.080000000000000002
aF0.059999999999999998
aF0.040000000000000001
aF0.029999999999999999
aaa(lp365
(lp366
g21
ag74
aa(lp367
F0.64000000000000001
aF0.51000000000000001
aF0.40999999999999998
aF0.33000000000000002
aF0.26000000000000001
aF0.20999999999999999
aF0.17000000000000001
aF0.13
aF0.11
aaa(lp368
(lp369
g21
ag78
aa(lp370
F0.35999999999999999
aF0.22
aF0.13
aF0.080000000000000002
aF0.050000000000000003
aF0.029999999999999999
aF0.02
aF0.01
aF0.01
aaa(lp371
(lp372
g21
ag82
aa(lp373
F0.29999999999999999
aF0.17000000000000001
aF0.089999999999999997
aF0.050000000000000003
aF0.029999999999999999
aF0.02
aF0.01
aF0.0
aF0.0
aaa(lp374
(lp375
g21
ag86
aa(lp376
F0.12
aF0.040000000000000001
aF0.02
aF0.01
aF0.0
aF0.0
aF0.0
aF0.0
aF0.0
aaa(lp377
(lp378
g21
ag90
aa(lp379
F0.040000000000000001
aF0.01
aF0.0
aF0.0
aF0.0
aF0.0
aF0.0
aF0.0
aF0.0
aaa(lp380
(lp381
g21
ag94
aa(lp382
F0.35999999999999999
aF0.22
aF0.13
aF0.080000000000000002
aF0.050000000000000003
aF0.029999999999999999
aF0.02
aF0.01
aF0.01
aaa(lp383
(lp384
g21
ag98
aa(lp385
F0.25
aF0.13
aF0.059999999999999998
aF0.029999999999999999
aF0.02
aF0.01
aF0.0
aF0.0
aF0.0
aaa(lp386
(lp387
g21
ag102
aa(lp388
F0.48999999999999999
aF0.34000000000000002
aF0.23999999999999999
aF0.17000000000000001
aF0.12
aF0.080000000000000002
aF0.059999999999999998
aF0.040000000000000001
aF0.029999999999999999
aaa(lp389
(lp390
g25
ag29
aa(lp391
F0.48999999999999999
aF0.34000000000000002
aF0.23999999999999999
aF0.17000000000000001
aF0.12
aF0.080000000000000002
aF0.059999999999999998
aF0.040000000000000001
aF0.029999999999999999
aaa(lp392
(lp393
g25
ag33
aa(lp394
F0.64000000000000001
aF0.51000000000000001
aF0.40999999999999998
aF0.33000000000000002
aF0.26000000000000001
aF0.20999999999999999
aF0.17000000000000001
aF0.13
aF0.11
aaa(lp395
(lp396
g25
ag37
aa(lp397
F0.81000000000000005
aF0.72999999999999998
aF0.66000000000000003
aF0.58999999999999997
aF0.53000000000000003
aF0.47999999999999998
aF0.42999999999999999
aF0.39000000000000001
aF0.34999999999999998
aaa(lp398
(lp399
g25
ag41
aa(lp400
F0.089999999999999997
aF0.029999999999999999
aF0.01
aF0.0
aF0.0
aF0.0
aF0.0
aF0.0
aF0.0
aaa(lp401
(lp402
g25
ag45
aa(lp403
F0.64000000000000001
aF0.51000000000000001
aF0.40999999999999998
aF0.33000000000000002
aF0.26000000000000001
aF0.20999999999999999
aF0.17000000000000001
aF0.13
aF0.11
aaa(lp404
(lp405
g25
ag49
aa(lp406
F0.29999999999999999
aF0.17000000000000001
aF0.089999999999999997
aF0.050000000000000003
aF0.029999999999999999
aF0.02
aF0.01
aF0.0
aF0.0
aaa(lp407
(lp408
g25
ag78
aa(lp409
F0.35999999999999999
aF0.22
aF0.13
aF0.080000000000000002
aF0.050000000000000003
aF0.029999999999999999
aF0.02
aF0.01
aF0.01
aaa(lp410
(lp411
g25
ag82
aa(lp412
F0.25
aF0.13
aF0.059999999999999998
aF0.029999999999999999
aF0.02
aF0.01
aF0.0
aF0.0
aF0.0
aaa(lp413
(lp414
g25
ag86
aa(lp415
F0.20000000000000001
aF0.089999999999999997
aF0.040000000000000001
aF0.02
aF0.01
aF0.0
aF0.0
aF0.0
aF0.0
aaa(lp416
(lp417
g25
ag90
aa(lp418
F0.25
aF0.13
aF0.059999999999999998
aF0.029999999999999999
aF0.02
aF0.01
aF0.0
aF0.0
aF0.0
aaa(lp419
(lp420
g25
ag94
aa(lp421
F0.35999999999999999
aF0.22
aF0.13
aF0.080000000000000002
aF0.050000000000000003
aF0.029999999999999999
aF0.02
aF0.01
aF0.01
aaa(lp422
(lp423
g25
ag98
aa(lp424
F0.71999999999999997
aF0.60999999999999999
aF0.52000000000000002
aF0.44
aF0.38
aF0.32000000000000001
aF0.27000000000000002
aF0.23000000000000001
aF0.20000000000000001
aaa(lp425
(lp426
g25
ag102
aa(lp427
F0.29999999999999999
aF0.17000000000000001
aF0.089999999999999997
aF0.050000000000000003
aF0.029999999999999999
aF0.02
aF0.01
aF0.0
aF0.0
aaa(lp428
(lp429
g29
ag33
aa(lp430
F0.35999999999999999
aF0.22
aF0.13
aF0.080000000000000002
aF0.050000000000000003
aF0.029999999999999999
aF0.02
aF0.01
aF0.01
aaa(lp431
(lp432
g29
ag37
aa(lp433
F0.41999999999999998
aF0.27000000000000002
aF0.17999999999999999
aF0.12
aF0.080000000000000002
aF0.050000000000000003
aF0.029999999999999999
aF0.02
aF0.01
aaa(lp434
(lp435
g29
ag41
aa(lp436
F0.089999999999999997
aF0.029999999999999999
aF0.01
aF0.0
aF0.0
aF0.0
aF0.0
aF0.0
aF0.0
aaa(lp437
(lp438
g29
ag45
aa(lp439
F0.41999999999999998
aF0.27000000000000002
aF0.17999999999999999
aF0.12
aF0.080000000000000002
aF0.050000000000000003
aF0.029999999999999999
aF0.02
aF0.01
aaa(lp440
(lp441
g29
ag49
aa(lp442
F0.64000000000000001
aF0.51000000000000001
aF0.40999999999999998
aF0.33000000000000002
aF0.26000000000000001
aF0.20999999999999999
aF0.17000000000000001
aF0.13
aF0.11
aaa(lp443
(lp444
g29
ag82
aa(lp445
F0.48999999999999999
aF0.34000000000000002
aF0.23999999999999999
aF0.17000000000000001
aF0.12
aF0.080000000000000002
aF0.059999999999999998
aF0.040000000000000001
aF0.029999999999999999
aaa(lp446
(lp447
g29
ag86
aa(lp448
F0.25
aF0.13
aF0.059999999999999998
aF0.029999999999999999
aF0.02
aF0.01
aF0.0
aF0.0
aF0.0
aaa(lp449
(lp450
g29
ag90
aa(lp451
F0.29999999999999999
aF0.17000000000000001
aF0.089999999999999997
aF0.050000000000000003
aF0.029999999999999999
aF0.02
aF0.01
aF0.0
aF0.0
aaa(lp452
(lp453
g29
ag94
aa(lp454
F0.48999999999999999
aF0.34000000000000002
aF0.23999999999999999
aF0.17000000000000001
aF0.12
aF0.080000000000000002
aF0.059999999999999998
aF0.040000000000000001
aF0.029999999999999999
aaa(lp455
(lp456
g29
ag98
aa(lp457
F0.16
aF0.059999999999999998
aF0.029999999999999999
aF0.01
aF0.0
aF0.0
aF0.0
aF0.0
aF0.0
aaa(lp458
(lp459
g29
ag102
aa(lp460
F0.56000000000000005
aF0.41999999999999998
aF0.32000000000000001
aF0.23999999999999999
aF0.17999999999999999
aF0.13
aF0.10000000000000001
aF0.080000000000000002
aF0.059999999999999998
aaa(lp461
(lp462
g33
ag37
aa(lp463
F0.20000000000000001
aF0.089999999999999997
aF0.040000000000000001
aF0.02
aF0.01
aF0.0
aF0.0
aF0.0
aF0.0
aaa(lp464
(lp465
g33
ag41
aa(lp466
F0.48999999999999999
aF0.34000000000000002
aF0.23999999999999999
aF0.17000000000000001
aF0.12
aF0.080000000000000002
aF0.059999999999999998
aF0.040000000000000001
aF0.029999999999999999
aaa(lp467
(lp468
g33
ag45
aa(lp469
F0.16
aF0.059999999999999998
aF0.029999999999999999
aF0.01
aF0.0
aF0.0
aF0.0
aF0.0
aF0.0
aaa(lp470
(lp471
g33
ag49
aa(lp472
F0.25
aF0.13
aF0.059999999999999998
aF0.029999999999999999
aF0.02
aF0.01
aF0.0
aF0.0
aF0.0
aaa(lp473
(lp474
g33
ag86
aa(lp475
F1.0
aF1.0
aF1.0
aF1.0
aF1.0
aF1.0
aF1.0
aF1.0
aF1.0
aaa(lp476
(lp477
g33
ag90
aa(lp478
F0.20000000000000001
aF0.089999999999999997
aF0.040000000000000001
aF0.02
aF0.01
aF0.0
aF0.0
aF0.0
aF0.0
aaa(lp479
(lp480
g33
ag94
aa(lp481
F0.35999999999999999
aF0.22
aF0.13
aF0.080000000000000002
aF0.050000000000000003
aF0.029999999999999999
aF0.02
aF0.01
aF0.01
aaa(lp482
(lp483
g33
ag98
aa(lp484
F0.29999999999999999
aF0.17000000000000001
aF0.089999999999999997
aF0.050000000000000003
aF0.029999999999999999
aF0.02
aF0.01
aF0.0
aF0.0
aaa(lp485
(lp486
g33
ag102
aa(lp487
F0.29999999999999999
aF0.17000000000000001
aF0.089999999999999997
aF0.050000000000000003
aF0.029999999999999999
aF0.02
aF0.01
aF0.0
aF0.0
aaa(lp488
(lp489
g37
ag41
aa(lp490
F0.29999999999999999
aF0.17000000000000001
aF0.089999999999999997
aF0.050000000000000003
aF0.029999999999999999
aF0.02
aF0.01
aF0.0
aF0.0
aaa(lp491
(lp492
g37
ag45
aa(lp493
F0.71999999999999997
aF0.60999999999999999
aF0.52000000000000002
aF0.44
aF0.38
aF0.32000000000000001
aF0.27000000000000002
aF0.23000000000000001
aF0.20000000000000001
aaa(lp494
(lp495
g37
ag49
aa(lp496
F0.64000000000000001
aF0.51000000000000001
aF0.40999999999999998
aF0.33000000000000002
aF0.26000000000000001
aF0.20999999999999999
aF0.17000000000000001
aF0.13
aF0.11
aaa(lp497
(lp498
g37
ag90
aa(lp499
F0.25
aF0.13
aF0.059999999999999998
aF0.029999999999999999
aF0.02
aF0.01
aF0.0
aF0.0
aF0.0
aaa(lp500
(lp501
g37
ag94
aa(lp502
F0.35999999999999999
aF0.22
aF0.13
aF0.080000000000000002
aF0.050000000000000003
aF0.029999999999999999
aF0.02
aF0.01
aF0.01
aaa(lp503
(lp504
g37
ag98
aa(lp505
F0.35999999999999999
aF0.22
aF0.13
aF0.080000000000000002
aF0.050000000000000003
aF0.029999999999999999
aF0.02
aF0.01
aF0.01
aaa(lp506
(lp507
g37
ag102
aa(lp508
F0.48999999999999999
aF0.34000000000000002
aF0.23999999999999999
aF0.17000000000000001
aF0.12
aF0.080000000000000002
aF0.059999999999999998
aF0.040000000000000001
aF0.029999999999999999
aaa(lp509
(lp510
g41
ag45
aa(lp511
F0.25
aF0.13
aF0.059999999999999998
aF0.029999999999999999
aF0.02
aF0.01
aF0.0
aF0.0
aF0.0
aaa(lp512
(lp513
g41
ag49
aa(lp514
F0.48999999999999999
aF0.34000000000000002
aF0.23999999999999999
aF0.17000000000000001
aF0.12
aF0.080000000000000002
aF0.059999999999999998
aF0.040000000000000001
aF0.029999999999999999
aaa(lp515
(lp516
g41
ag94
aa(lp517
F0.48999999999999999
aF0.34000000000000002
aF0.23999999999999999
aF0.17000000000000001
aF0.12
aF0.080000000000000002
aF0.059999999999999998
aF0.040000000000000001
aF0.029999999999999999
aaa(lp518
(lp519
g41
ag98
aa(lp520
F0.48999999999999999
aF0.34000000000000002
aF0.23999999999999999
aF0.17000000000000001
aF0.12
aF0.080000000000000002
aF0.059999999999999998
aF0.040000000000000001
aF0.029999999999999999
aaa(lp521
(lp522
g41
ag102
aa(lp523
F0.48999999999999999
aF0.34000000000000002
aF0.23999999999999999
aF0.17000000000000001
aF0.12
aF0.080000000000000002
aF0.059999999999999998
aF0.040000000000000001
aF0.029999999999999999
aaa(lp524
(lp525
g45
ag49
aa(lp526
F0.48999999999999999
aF0.34000000000000002
aF0.23999999999999999
aF0.17000000000000001
aF0.12
aF0.080000000000000002
aF0.059999999999999998
aF0.040000000000000001
aF0.029999999999999999
aaa(lp527
(lp528
g45
ag98
aa(lp529
F0.64000000000000001
aF0.51000000000000001
aF0.40999999999999998
aF0.33000000000000002
aF0.26000000000000001
aF0.20999999999999999
aF0.17000000000000001
aF0.13
aF0.11
aaa(lp530
(lp531
g45
ag102
aa(lp532
F0.35999999999999999
aF0.22
aF0.13
aF0.080000000000000002
aF0.050000000000000003
aF0.029999999999999999
aF0.02
aF0.01
aF0.01
aaa(lp533
(lp534
g49
ag102
aa(lp535
F1.0
aF1.0
aF1.0
aF1.0
aF1.0
aF1.0
aF1.0
aF1.0
aF1.0
aaa.